opt subtitle "HI-TECH Software Omniscient Code Generator (PRO mode) build 10920"

opt pagewidth 120

	opt pm

	processor	16F887
clrc	macro
	bcf	3,0
	endm
clrz	macro
	bcf	3,2
	endm
setc	macro
	bsf	3,0
	endm
setz	macro
	bsf	3,2
	endm
skipc	macro
	btfss	3,0
	endm
skipz	macro
	btfss	3,2
	endm
skipnc	macro
	btfsc	3,0
	endm
skipnz	macro
	btfsc	3,2
	endm
indf	equ	0
indf0	equ	0
pc	equ	2
pcl	equ	2
status	equ	3
fsr	equ	4
fsr0	equ	4
c	equ	1
z	equ	0
pclath	equ	10
# 4 "C:\Users\ranjan\Desktop\matrix\main.c"
	psect config,class=CONFIG,delta=2 ;#
# 4 "C:\Users\ranjan\Desktop\matrix\main.c"
	dw 0X20F2 ;#
	FNCALL	_main,__memset
	FNCALL	_main,_eeprom_write
	FNCALL	_main,__memcpy
	FNCALL	_main,_eeprom_read
	FNCALL	_main,_eeprom_str_write
	FNCALL	_main,_clr_disp
	FNCALL	_main,_charUpdate
	FNCALL	_main,_keybrdInput
	FNCALL	_keybrdInput,_clr_disp
	FNCALL	_keybrdInput,_small_font_disp
	FNCALL	_keybrdInput,_refresh_display
	FNCALL	_keybrdInput,_put_cursor
	FNCALL	_keybrdInput,__memset
	FNCALL	_keybrdInput,_getKey
	FNCALL	_keybrdInput,_select_scrll_speed
	FNCALL	_keybrdInput,_Back
	FNCALL	_keybrdInput,_eeprom_write
	FNCALL	_keybrdInput,_eeprom_str_read
	FNCALL	_keybrdInput,_eeprom_str_write
	FNCALL	_charUpdate,_get_Arial_Rounded_MT_Bold15x16
	FNCALL	_small_font_disp,_get_font_5X7
	FNCALL	_small_font_disp,_fillRAM
	FNCALL	_get_font_5X7,___wmul
	FNCALL	_get_Arial_Rounded_MT_Bold15x16,___wmul
	FNCALL	_eeprom_str_write,_eeprom_write
	FNCALL	_eeprom_str_read,_eeprom_read
	FNCALL	_refresh_display,_putRowData
	FNCALL	_clr_disp,__memset
	FNCALL	_put_cursor,___bmul
	FNCALL	_put_cursor,_fillRAM
	FNROOT	_main
	FNCALL	_ISR,_kbd
	FNCALL	_ISR,i1_refresh_display
	FNCALL	_ISR,_screenShift
	FNCALL	_ISR,i1_charUpdate
	FNCALL	i1_charUpdate,i1_get_Arial_Rounded_MT_Bold15x16
	FNCALL	_kbd,_decode_key
	FNCALL	i1_get_Arial_Rounded_MT_Bold15x16,i1___wmul
	FNCALL	i1_refresh_display,i1_putRowData
	FNCALL	_decode_key,_fill_kbd_buff
	FNCALL	intlevel1,_ISR
	global	intlevel1
	FNROOT	intlevel1
	global	_key
psect	stringtext,class=STRCODE,delta=2,reloc=256
global __pstringtext
__pstringtext:
;	global	stringtab,__stringbase
stringtab:
;	String table - string pointers are 2 bytes each
	btfsc	(btemp+1),7
	ljmp	stringcode
	bcf	status,7
	btfsc	(btemp+1),0
	bsf	status,7
	movf	indf,w
	incf fsr
skipnz
incf btemp+1
	return
stringcode:
	movf btemp+1,w
andlw 7Fh
movwf	pclath
	movf	fsr,w
incf fsr
skipnz
incf btemp+1
	movwf pc
__stringbase:
	file	"C:\Users\ranjan\Desktop\matrix\ps2_kbd.c"
	line	22
_key:
	retlw	020h
	retlw	029h
	retlw	061h
	retlw	01Ch
	retlw	062h
	retlw	032h
	retlw	063h
	retlw	021h
	retlw	064h
	retlw	023h
	retlw	065h
	retlw	024h
	retlw	066h
	retlw	02Bh
	retlw	067h
	retlw	034h
	retlw	068h
	retlw	033h
	retlw	069h
	retlw	043h
	retlw	06Ah
	retlw	03Bh
	retlw	06Bh
	retlw	042h
	retlw	06Ch
	retlw	04Bh
	retlw	06Dh
	retlw	03Ah
	retlw	06Eh
	retlw	031h
	retlw	06Fh
	retlw	044h
	retlw	070h
	retlw	04Dh
	retlw	071h
	retlw	015h
	retlw	072h
	retlw	02Dh
	retlw	073h
	retlw	01Bh
	retlw	074h
	retlw	02Ch
	retlw	075h
	retlw	03Ch
	retlw	076h
	retlw	02Ah
	retlw	077h
	retlw	01Dh
	retlw	078h
	retlw	022h
	retlw	079h
	retlw	035h
	retlw	07Ah
	retlw	01Ah
	retlw	030h
	retlw	045h
	retlw	031h
	retlw	016h
	retlw	032h
	retlw	01Eh
	retlw	033h
	retlw	026h
	retlw	034h
	retlw	025h
	retlw	035h
	retlw	02Eh
	retlw	036h
	retlw	036h
	retlw	037h
	retlw	03Dh
	retlw	038h
	retlw	03Eh
	retlw	039h
	retlw	046h
	retlw	060h
	retlw	0Eh
	retlw	02Dh
	retlw	04Eh
	retlw	03Dh
	retlw	055h
	retlw	05Ch
	retlw	05Dh
	retlw	05Bh
	retlw	054h
	retlw	05Dh
	retlw	05Bh
	retlw	03Bh
	retlw	04Ch
	retlw	027h
	retlw	052h
	retlw	02Ch
	retlw	041h
	retlw	02Eh
	retlw	049h
	retlw	02Fh
	retlw	04Ah
	retlw	030h
	retlw	070h
	retlw	031h
	retlw	069h
	retlw	032h
	retlw	072h
	retlw	033h
	retlw	07Ah
	retlw	034h
	retlw	06Bh
	retlw	035h
	retlw	073h
	retlw	036h
	retlw	074h
	retlw	037h
	retlw	06Ch
	retlw	038h
	retlw	075h
	retlw	039h
	retlw	07Dh
	retlw	0
	retlw	05h
	retlw	01h
	retlw	06h
	retlw	02h
	retlw	04h
	retlw	03h
	retlw	0Ch
	retlw	04h
	retlw	03h
	retlw	05h
	retlw	0Bh
	retlw	06h
	retlw	083h
	retlw	07h
	retlw	0Ah
	retlw	08h
	retlw	01h
	retlw	09h
	retlw	09h
	retlw	0Ah
	retlw	078h
	retlw	0Bh
	retlw	07h
	retlw	0Dh
	retlw	014h
	retlw	0Eh
	retlw	011h
	retlw	010h
	retlw	05Ah
	retlw	011h
	retlw	076h
	retlw	012h
	retlw	066h
	retlw	014h
	retlw	0Dh
	retlw	016h
	retlw	07Eh
	retlw	09Dh
	retlw	077h
	retlw	09Eh
	retlw	07Ch
	retlw	09Fh
	retlw	07Bh
	retlw	0A0h
	retlw	079h
	retlw	0A1h
	retlw	071h
	global	_Ext_key
psect	stringtext
	file	"C:\Users\ranjan\Desktop\matrix\ps2_kbd.c"
	line	120
_Ext_key:
	retlw	017h
	retlw	070h
	retlw	018h
	retlw	06Ch
	retlw	019h
	retlw	07Dh
	retlw	01Ah
	retlw	071h
	retlw	01Bh
	retlw	069h
	retlw	01Ch
	retlw	07Ah
	retlw	01Dh
	retlw	075h
	retlw	01Eh
	retlw	06Bh
	retlw	01Fh
	retlw	072h
	retlw	080h
	retlw	01Fh
	retlw	081h
	retlw	014h
	retlw	082h
	retlw	027h
	retlw	083h
	retlw	011h
	retlw	084h
	retlw	02Fh
	retlw	085h
	retlw	07Ch
	retlw	086h
	retlw	04Ah
	retlw	087h
	retlw	05Ah
	retlw	088h
	retlw	037h
	retlw	089h
	retlw	03Fh
	retlw	08Ah
	retlw	05Eh
	retlw	08Bh
	retlw	04Dh
	retlw	08Ch
	retlw	015h
	retlw	08Dh
	retlw	03Bh
	retlw	08Eh
	retlw	034h
	retlw	08Fh
	retlw	023h
	retlw	090h
	retlw	032h
	retlw	091h
	retlw	021h
	retlw	092h
	retlw	050h
	retlw	093h
	retlw	048h
	retlw	094h
	retlw	02Bh
	retlw	095h
	retlw	040h
	retlw	096h
	retlw	010h
	retlw	097h
	retlw	03Ah
	retlw	098h
	retlw	038h
	retlw	099h
	retlw	030h
	retlw	09Ah
	retlw	028h
	retlw	09Bh
	retlw	020h
	retlw	09Ch
	retlw	018h
	retlw	0A2h
	retlw	074h
	global	_Shift_key
psect	stringtext
	file	"C:\Users\ranjan\Desktop\matrix\ps2_kbd.c"
	line	168
_Shift_key:
	retlw	029h
	retlw	070h
	retlw	021h
	retlw	069h
	retlw	040h
	retlw	072h
	retlw	023h
	retlw	07Ah
	retlw	024h
	retlw	06Bh
	retlw	025h
	retlw	073h
	retlw	05Eh
	retlw	074h
	retlw	026h
	retlw	06Ch
	retlw	02Ah
	retlw	075h
	retlw	028h
	retlw	07Dh
	retlw	07Eh
	retlw	0Eh
	retlw	05Fh
	retlw	04Eh
	retlw	02Bh
	retlw	055h
	retlw	07Ch
	retlw	05Dh
	retlw	07Bh
	retlw	054h
	retlw	07Dh
	retlw	05Bh
	retlw	03Ah
	retlw	04Ch
	retlw	022h
	retlw	052h
	retlw	03Ch
	retlw	041h
	retlw	03Eh
	retlw	049h
	retlw	03Fh
	retlw	04Ah
	global	_Arial_Rounded_MT_Bold20x16
psect	stringtext
	file	"C:\Users\ranjan\Desktop\matrix\font.c"
	line	1084
_Arial_Rounded_MT_Bold20x16:
	retlw	0Bh
	retlw	0
	retlw	0
	retlw	0
	retlw	0
	retlw	0
	retlw	0
	retlw	0
	retlw	0
	retlw	0
	retlw	0
	retlw	0
	retlw	0
	retlw	0
	retlw	0
	retlw	0
	retlw	0
	retlw	0
	retlw	0
	retlw	0
	retlw	0
	retlw	0
	retlw	0
	retlw	0
	retlw	0
	retlw	0
	retlw	0
	retlw	0
	retlw	0
	retlw	0
	retlw	0
	retlw	0
	retlw	0
	retlw	0
	retlw	0
	retlw	0
	retlw	0
	retlw	0
	retlw	0
	retlw	05h
	retlw	0
	retlw	0
	retlw	0FEh
	retlw	071h
	retlw	0FEh
	retlw	073h
	retlw	0FEh
	retlw	071h
	retlw	0
	retlw	0
	retlw	0
	retlw	0
	retlw	0
	retlw	0
	retlw	0
	retlw	0
	retlw	0
	retlw	0
	retlw	0
	retlw	0
	retlw	0
	retlw	0
	retlw	0
	retlw	0
	retlw	0
	retlw	0
	retlw	0
	retlw	0
	retlw	0
	retlw	0
	retlw	0
	retlw	0
	retlw	0
	retlw	0
	retlw	0
	retlw	0
	retlw	0
	retlw	0
	retlw	09h
	retlw	07Ch
	retlw	0
	retlw	07Ch
	retlw	0
	retlw	07Ch
	retlw	0
	retlw	0
	retlw	0
	retlw	0
	retlw	0
	retlw	07Ch
	retlw	0
	retlw	07Ch
	retlw	0
	retlw	07Ch
	retlw	0
	retlw	0
	retlw	0
	retlw	0
	retlw	0
	retlw	0
	retlw	0
	retlw	0
	retlw	0
	retlw	0
	retlw	0
	retlw	0
	retlw	0
	retlw	0
	retlw	0
	retlw	0
	retlw	0
	retlw	0
	retlw	0
	retlw	0
	retlw	0
	retlw	0
	retlw	0
	retlw	0Ch
	retlw	030h
	retlw	06h
	retlw	030h
	retlw	07Eh
	retlw	0F0h
	retlw	07Fh
	retlw	0FCh
	retlw	0Fh
	retlw	07Eh
	retlw	06h
	retlw	032h
	retlw	066h
	retlw	030h
	retlw	07Fh
	retlw	0F8h
	retlw	03Fh
	retlw	0FEh
	retlw	07h
	retlw	03Eh
	retlw	06h
	retlw	020h
	retlw	06h
	retlw	0
	retlw	0
	retlw	0
	retlw	0
	retlw	0
	retlw	0
	retlw	0
	retlw	0
	retlw	0
	retlw	0
	retlw	0
	retlw	0
	retlw	0
	retlw	0
	retlw	0
	retlw	0
	retlw	0Bh
	retlw	078h
	retlw	03Ch
	retlw	0FCh
	retlw	07Ch
	retlw	0E6h
	retlw	070h
	retlw	0C2h
	retlw	060h
	retlw	0FFh
	retlw	0FFh
	retlw	0FFh
	retlw	0FFh
	retlw	0C2h
	retlw	061h
	retlw	08Eh
	retlw	073h
	retlw	09Ch
	retlw	03Fh
	retlw	08h
	retlw	01Fh
	retlw	0
	retlw	0
	retlw	0
	retlw	0
	retlw	0
	retlw	0
	retlw	0
	retlw	0
	retlw	0
	retlw	0
	retlw	0
	retlw	0
	retlw	0
	retlw	0
	retlw	0
	retlw	0
	retlw	0
	retlw	0
	retlw	012h
	retlw	07Ch
	retlw	0
	retlw	0FEh
	retlw	0
	retlw	082h
	retlw	0
	retlw	082h
	retlw	0
	retlw	082h
	retlw	060h
	retlw	0FCh
	retlw	070h
	retlw	078h
	retlw	01Ch
	retlw	0
	retlw	07h
	retlw	080h
	retlw	03h
	retlw	0E0h
	retlw	0
	retlw	038h
	retlw	03Eh
	retlw	01Ch
	retlw	07Fh
	retlw	06h
	retlw	041h
	retlw	0
	retlw	041h
	retlw	0
	retlw	041h
	retlw	0
	retlw	07Fh
	retlw	0
	retlw	03Eh
	retlw	0
	retlw	0
	retlw	0
	retlw	0
	retlw	0Fh
	retlw	0
	retlw	01Eh
	retlw	0
	retlw	03Fh
	retlw	038h
	retlw	07Fh
	retlw	0FCh
	retlw	073h
	retlw	0FEh
	retlw	061h
	retlw	0C6h
	retlw	061h
	retlw	0C6h
	retlw	063h
	retlw	066h
	retlw	077h
	retlw	07Ch
	retlw	03Eh
	retlw	038h
	retlw	03Ch
	retlw	0
	retlw	03Fh
	retlw	0
	retlw	077h
	retlw	0
	retlw	072h
	retlw	0
	retlw	020h
	retlw	0
	retlw	0
	retlw	0
	retlw	0
	retlw	0
	retlw	0
	retlw	0
	retlw	0
	retlw	0
	retlw	0
	retlw	04h
	retlw	07Ch
	retlw	0
	retlw	07Ch
	retlw	0
	retlw	07Ch
	retlw	0
	retlw	0
	retlw	0
	retlw	0
	retlw	0
	retlw	0
	retlw	0
	retlw	0
	retlw	0
	retlw	0
	retlw	0
	retlw	0
	retlw	0
	retlw	0
	retlw	0
	retlw	0
	retlw	0
	retlw	0
	retlw	0
	retlw	0
	retlw	0
	retlw	0
	retlw	0
	retlw	0
	retlw	0
	retlw	0
	retlw	0
	retlw	0
	retlw	0
	retlw	0
	retlw	0
	retlw	0
	retlw	0
	retlw	06h
	retlw	0E0h
	retlw	07h
	retlw	0F8h
	retlw	01Fh
	retlw	0FCh
	retlw	03Fh
	retlw	0Eh
	retlw	070h
	retlw	03h
	retlw	0C0h
	retlw	0
	retlw	0
	retlw	0
	retlw	0
	retlw	0
	retlw	0
	retlw	0
	retlw	0
	retlw	0
	retlw	0
	retlw	0
	retlw	0
	retlw	0
	retlw	0
	retlw	0
	retlw	0
	retlw	0
	retlw	0
	retlw	0
	retlw	0
	retlw	0
	retlw	0
	retlw	0
	retlw	0
	retlw	0
	retlw	0
	retlw	0
	retlw	0
	retlw	06h
	retlw	03h
	retlw	0C0h
	retlw	0Eh
	retlw	070h
	retlw	0FCh
	retlw	03Fh
	retlw	0F8h
	retlw	01Fh
	retlw	0E0h
	retlw	07h
	retlw	0
	retlw	0
	retlw	0
	retlw	0
	retlw	0
	retlw	0
	retlw	0
	retlw	0
	retlw	0
	retlw	0
	retlw	0
	retlw	0
	retlw	0
	retlw	0
	retlw	0
	retlw	0
	retlw	0
	retlw	0
	retlw	0
	retlw	0
	retlw	0
	retlw	0
	retlw	0
	retlw	0
	retlw	0
	retlw	0
	retlw	0
	retlw	0
	retlw	09h
	retlw	018h
	retlw	0
	retlw	098h
	retlw	0
	retlw	0D0h
	retlw	0
	retlw	07Eh
	retlw	0
	retlw	07Eh
	retlw	0
	retlw	0D0h
	retlw	0
	retlw	0D8h
	retlw	0
	retlw	018h
	retlw	0
	retlw	0
	retlw	0
	retlw	0
	retlw	0
	retlw	0
	retlw	0
	retlw	0
	retlw	0
	retlw	0
	retlw	0
	retlw	0
	retlw	0
	retlw	0
	retlw	0
	retlw	0
	retlw	0
	retlw	0
	retlw	0
	retlw	0
	retlw	0
	retlw	0
	retlw	0
	retlw	0Ch
	retlw	0C0h
	retlw	0
	retlw	0C0h
	retlw	0
	retlw	0C0h
	retlw	0
	retlw	0C0h
	retlw	0
	retlw	0FCh
	retlw	0Fh
	retlw	0FCh
	retlw	0Fh
	retlw	0FCh
	retlw	0Fh
	retlw	0C0h
	retlw	0
	retlw	0C0h
	retlw	0
	retlw	0C0h
	retlw	0
	retlw	0C0h
	retlw	0
	retlw	0
	retlw	0
	retlw	0
	retlw	0
	retlw	0
	retlw	0
	retlw	0
	retlw	0
	retlw	0
	retlw	0
	retlw	0
	retlw	0
	retlw	0
	retlw	0
	retlw	0
	retlw	0
	retlw	05h
	retlw	0
	retlw	0
	retlw	0
	retlw	04Eh
	retlw	0
	retlw	03Eh
	retlw	0
	retlw	01Eh
	retlw	0
	retlw	0
	retlw	0
	retlw	0
	retlw	0
	retlw	0
	retlw	0
	retlw	0
	retlw	0
	retlw	0
	retlw	0
	retlw	0
	retlw	0
	retlw	0
	retlw	0
	retlw	0
	retlw	0
	retlw	0
	retlw	0
	retlw	0
	retlw	0
	retlw	0
	retlw	0
	retlw	0
	retlw	0
	retlw	0
	retlw	0
	retlw	0
	retlw	0
	retlw	0
	retlw	07h
	retlw	0
	retlw	03h
	retlw	0
	retlw	03h
	retlw	0
	retlw	03h
	retlw	0
	retlw	03h
	retlw	0
	retlw	03h
	retlw	0
	retlw	03h
	retlw	0
	retlw	0
	retlw	0
	retlw	0
	retlw	0
	retlw	0
	retlw	0
	retlw	0
	retlw	0
	retlw	0
	retlw	0
	retlw	0
	retlw	0
	retlw	0
	retlw	0
	retlw	0
	retlw	0
	retlw	0
	retlw	0
	retlw	0
	retlw	0
	retlw	0
	retlw	0
	retlw	0
	retlw	0
	retlw	0
	retlw	05h
	retlw	0
	retlw	0
	retlw	0
	retlw	038h
	retlw	0
	retlw	038h
	retlw	0
	retlw	038h
	retlw	0
	retlw	0
	retlw	0
	retlw	0
	retlw	0
	retlw	0
	retlw	0
	retlw	0
	retlw	0
	retlw	0
	retlw	0
	retlw	0
	retlw	0
	retlw	0
	retlw	0
	retlw	0
	retlw	0
	retlw	0
	retlw	0
	retlw	0
	retlw	0
	retlw	0
	retlw	0
	retlw	0
	retlw	0
	retlw	0
	retlw	0
	retlw	0
	retlw	0
	retlw	0
	retlw	06h
	retlw	0
	retlw	070h
	retlw	0
	retlw	07Fh
	retlw	0F0h
	retlw	0Fh
	retlw	0FEh
	retlw	0
	retlw	0Eh
	retlw	0
	retlw	0
	retlw	0
	retlw	0
	retlw	0
	retlw	0
	retlw	0
	retlw	0
	retlw	0
	retlw	0
	retlw	0
	retlw	0
	retlw	0
	retlw	0
	retlw	0
	retlw	0
	retlw	0
	retlw	0
	retlw	0
	retlw	0
	retlw	0
	retlw	0
	retlw	0
	retlw	0
	retlw	0
	retlw	0
	retlw	0
	retlw	0
	retlw	0
	retlw	0Bh
	retlw	0F0h
	retlw	0Fh
	retlw	0F8h
	retlw	01Fh
	retlw	0FCh
	retlw	03Fh
	retlw	0Eh
	retlw	070h
	retlw	06h
	retlw	060h
	retlw	06h
	retlw	060h
	retlw	0Eh
	retlw	070h
	retlw	0FCh
	retlw	03Fh
	retlw	0F8h
	retlw	01Fh
	retlw	0F0h
	retlw	0Fh
	retlw	0
	retlw	0
	retlw	0
	retlw	0
	retlw	0
	retlw	0
	retlw	0
	retlw	0
	retlw	0
	retlw	0
	retlw	0
	retlw	0
	retlw	0
	retlw	0
	retlw	0
	retlw	0
	retlw	0
	retlw	0
	retlw	08h
	retlw	060h
	retlw	0
	retlw	070h
	retlw	0
	retlw	030h
	retlw	0
	retlw	018h
	retlw	0
	retlw	0FCh
	retlw	07Fh
	retlw	0FEh
	retlw	07Fh
	retlw	0FEh
	retlw	07Fh
	retlw	0
	retlw	0
	retlw	0
	retlw	0
	retlw	0
	retlw	0
	retlw	0
	retlw	0
	retlw	0
	retlw	0
	retlw	0
	retlw	0
	retlw	0
	retlw	0
	retlw	0
	retlw	0
	retlw	0
	retlw	0
	retlw	0
	retlw	0
	retlw	0
	retlw	0
	retlw	0
	retlw	0
	retlw	0Bh
	retlw	038h
	retlw	070h
	retlw	03Ch
	retlw	078h
	retlw	01Eh
	retlw	07Ch
	retlw	06h
	retlw	07Eh
	retlw	06h
	retlw	06Eh
	retlw	06h
	retlw	067h
	retlw	08Eh
	retlw	063h
	retlw	0FCh
	retlw	061h
	retlw	0FCh
	retlw	060h
	retlw	078h
	retlw	060h
	retlw	0
	retlw	0
	retlw	0
	retlw	0
	retlw	0
	retlw	0
	retlw	0
	retlw	0
	retlw	0
	retlw	0
	retlw	0
	retlw	0
	retlw	0
	retlw	0
	retlw	0
	retlw	0
	retlw	0
	retlw	0
	retlw	0Bh
	retlw	08h
	retlw	01Ch
	retlw	01Ch
	retlw	03Ch
	retlw	08Eh
	retlw	070h
	retlw	0C6h
	retlw	060h
	retlw	0C6h
	retlw	060h
	retlw	0C6h
	retlw	060h
	retlw	0FEh
	retlw	071h
	retlw	0FCh
	retlw	03Fh
	retlw	03Ch
	retlw	03Fh
	retlw	0
	retlw	0Eh
	retlw	0
	retlw	0
	retlw	0
	retlw	0
	retlw	0
	retlw	0
	retlw	0
	retlw	0
	retlw	0
	retlw	0
	retlw	0
	retlw	0
	retlw	0
	retlw	0
	retlw	0
	retlw	0
	retlw	0
	retlw	0
	retlw	0Dh
	retlw	0
	retlw	04h
	retlw	0
	retlw	0Fh
	retlw	080h
	retlw	0Fh
	retlw	0C0h
	retlw	0Dh
	retlw	0E0h
	retlw	0Ch
	retlw	038h
	retlw	0Ch
	retlw	01Ch
	retlw	0Ch
	retlw	0FEh
	retlw	07Fh
	retlw	0FEh
	retlw	07Fh
	retlw	0FEh
	retlw	07Fh
	retlw	0
	retlw	0Ch
	retlw	0
	retlw	0Ch
	retlw	0
	retlw	0
	retlw	0
	retlw	0
	retlw	0
	retlw	0
	retlw	0
	retlw	0
	retlw	0
	retlw	0
	retlw	0
	retlw	0
	retlw	0
	retlw	0
	retlw	0Bh
	retlw	0F0h
	retlw	01Ch
	retlw	0FEh
	retlw	03Ch
	retlw	0FEh
	retlw	070h
	retlw	066h
	retlw	060h
	retlw	066h
	retlw	060h
	retlw	066h
	retlw	060h
	retlw	0E6h
	retlw	070h
	retlw	0C6h
	retlw	03Fh
	retlw	0C6h
	retlw	01Fh
	retlw	04h
	retlw	0Fh
	retlw	0
	retlw	0
	retlw	0
	retlw	0
	retlw	0
	retlw	0
	retlw	0
	retlw	0
	retlw	0
	retlw	0
	retlw	0
	retlw	0
	retlw	0
	retlw	0
	retlw	0
	retlw	0
	retlw	0
	retlw	0
	retlw	0Bh
	retlw	0E0h
	retlw	0Fh
	retlw	0F8h
	retlw	01Fh
	retlw	0FCh
	retlw	03Fh
	retlw	08Eh
	retlw	071h
	retlw	0C6h
	retlw	060h
	retlw	0C6h
	retlw	060h
	retlw	0CEh
	retlw	071h
	retlw	0DEh
	retlw	03Fh
	retlw	09Ch
	retlw	03Fh
	retlw	0
	retlw	01Fh
	retlw	0
	retlw	0
	retlw	0
	retlw	0
	retlw	0
	retlw	0
	retlw	0
	retlw	0
	retlw	0
	retlw	0
	retlw	0
	retlw	0
	retlw	0
	retlw	0
	retlw	0
	retlw	0
	retlw	0
	retlw	0
	retlw	0Bh
	retlw	06h
	retlw	0
	retlw	06h
	retlw	0
	retlw	06h
	retlw	078h
	retlw	06h
	retlw	07Eh
	retlw	086h
	retlw	07Fh
	retlw	0E6h
	retlw	07h
	retlw	0F6h
	retlw	0
	retlw	03Eh
	retlw	0
	retlw	01Eh
	retlw	0
	retlw	06h
	retlw	0
	retlw	0
	retlw	0
	retlw	0
	retlw	0
	retlw	0
	retlw	0
	retlw	0
	retlw	0
	retlw	0
	retlw	0
	retlw	0
	retlw	0
	retlw	0
	retlw	0
	retlw	0
	retlw	0
	retlw	0
	retlw	0
	retlw	0Bh
	retlw	0
	retlw	01Eh
	retlw	03Ch
	retlw	03Fh
	retlw	0FCh
	retlw	07Fh
	retlw	0EEh
	retlw	071h
	retlw	0C6h
	retlw	060h
	retlw	0C6h
	retlw	060h
	retlw	0EEh
	retlw	071h
	retlw	0FEh
	retlw	07Fh
	retlw	03Ch
	retlw	03Fh
	retlw	0
	retlw	01Eh
	retlw	0
	retlw	0
	retlw	0
	retlw	0
	retlw	0
	retlw	0
	retlw	0
	retlw	0
	retlw	0
	retlw	0
	retlw	0
	retlw	0
	retlw	0
	retlw	0
	retlw	0
	retlw	0
	retlw	0
	retlw	0
	retlw	0Ch
	retlw	0F0h
	retlw	0
	retlw	0FCh
	retlw	039h
	retlw	0FCh
	retlw	03Bh
	retlw	08Eh
	retlw	073h
	retlw	06h
	retlw	063h
	retlw	06h
	retlw	063h
	retlw	06h
	retlw	063h
	retlw	08Eh
	retlw	071h
	retlw	0FCh
	retlw	03Fh
	retlw	0F8h
	retlw	01Fh
	retlw	0F0h
	retlw	07h
	retlw	0
	retlw	0
	retlw	0
	retlw	0
	retlw	0
	retlw	0
	retlw	0
	retlw	0
	retlw	0
	retlw	0
	retlw	0
	retlw	0
	retlw	0
	retlw	0
	retlw	0
	retlw	0
	retlw	05h
	retlw	0
	retlw	0
	retlw	038h
	retlw	01Ch
	retlw	038h
	retlw	01Ch
	retlw	038h
	retlw	01Ch
	retlw	0
	retlw	0
	retlw	0
	retlw	0
	retlw	0
	retlw	0
	retlw	0
	retlw	0
	retlw	0
	retlw	0
	retlw	0
	retlw	0
	retlw	0
	retlw	0
	retlw	0
	retlw	0
	retlw	0
	retlw	0
	retlw	0
	retlw	0
	retlw	0
	retlw	0
	retlw	0
	retlw	0
	retlw	0
	retlw	0
	retlw	0
	retlw	0
	retlw	0
	retlw	0
	retlw	05h
	retlw	0
	retlw	0
	retlw	01Ch
	retlw	06Eh
	retlw	01Ch
	retlw	07Eh
	retlw	01Ch
	retlw	01Ch
	retlw	0
	retlw	0
	retlw	0
	retlw	0
	retlw	0
	retlw	0
	retlw	0
	retlw	0
	retlw	0
	retlw	0
	retlw	0
	retlw	0
	retlw	0
	retlw	0
	retlw	0
	retlw	0
	retlw	0
	retlw	0
	retlw	0
	retlw	0
	retlw	0
	retlw	0
	retlw	0
	retlw	0
	retlw	0
	retlw	0
	retlw	0
	retlw	0
	retlw	0
	retlw	0
	retlw	0Bh
	retlw	0C0h
	retlw	01h
	retlw	0C0h
	retlw	01h
	retlw	0E0h
	retlw	03h
	retlw	060h
	retlw	03h
	retlw	070h
	retlw	07h
	retlw	070h
	retlw	07h
	retlw	030h
	retlw	06h
	retlw	038h
	retlw	0Eh
	retlw	018h
	retlw	0Ch
	retlw	01Ch
	retlw	01Ch
	retlw	0
	retlw	0
	retlw	0
	retlw	0
	retlw	0
	retlw	0
	retlw	0
	retlw	0
	retlw	0
	retlw	0
	retlw	0
	retlw	0
	retlw	0
	retlw	0
	retlw	0
	retlw	0
	retlw	0
	retlw	0
	retlw	0Bh
	retlw	030h
	retlw	03h
	retlw	030h
	retlw	03h
	retlw	030h
	retlw	03h
	retlw	030h
	retlw	03h
	retlw	030h
	retlw	03h
	retlw	030h
	retlw	03h
	retlw	030h
	retlw	03h
	retlw	030h
	retlw	03h
	retlw	030h
	retlw	03h
	retlw	030h
	retlw	03h
	retlw	0
	retlw	0
	retlw	0
	retlw	0
	retlw	0
	retlw	0
	retlw	0
	retlw	0
	retlw	0
	retlw	0
	retlw	0
	retlw	0
	retlw	0
	retlw	0
	retlw	0
	retlw	0
	retlw	0
	retlw	0
	retlw	0Bh
	retlw	01Ch
	retlw	0Eh
	retlw	018h
	retlw	06h
	retlw	018h
	retlw	06h
	retlw	038h
	retlw	07h
	retlw	030h
	retlw	03h
	retlw	0B0h
	retlw	03h
	retlw	0E0h
	retlw	01h
	retlw	0E0h
	retlw	01h
	retlw	0E0h
	retlw	01h
	retlw	0C0h
	retlw	0
	retlw	0
	retlw	0
	retlw	0
	retlw	0
	retlw	0
	retlw	0
	retlw	0
	retlw	0
	retlw	0
	retlw	0
	retlw	0
	retlw	0
	retlw	0
	retlw	0
	retlw	0
	retlw	0
	retlw	0
	retlw	0
	retlw	0Bh
	retlw	038h
	retlw	0
	retlw	03Ch
	retlw	0
	retlw	01Eh
	retlw	0
	retlw	06h
	retlw	076h
	retlw	086h
	retlw	077h
	retlw	086h
	retlw	077h
	retlw	0CEh
	retlw	01h
	retlw	0FEh
	retlw	0
	retlw	07Ch
	retlw	0
	retlw	038h
	retlw	0
	retlw	0
	retlw	0
	retlw	0
	retlw	0
	retlw	0
	retlw	0
	retlw	0
	retlw	0
	retlw	0
	retlw	0
	retlw	0
	retlw	0
	retlw	0
	retlw	0
	retlw	0
	retlw	0
	retlw	0
	retlw	0
	retlw	013h
	retlw	0F0h
	retlw	0Fh
	retlw	078h
	retlw	01Ch
	retlw	01Ch
	retlw	030h
	retlw	08Eh
	retlw	077h
	retlw	0E6h
	retlw	06Fh
	retlw	0E6h
	retlw	0EFh
	retlw	073h
	retlw	0C8h
	retlw	013h
	retlw	0C8h
	retlw	013h
	retlw	0C8h
	retlw	013h
	retlw	0CCh
	retlw	023h
	retlw	0CFh
	retlw	0F3h
	retlw	0CFh
	retlw	0F7h
	retlw	0C9h
	retlw	016h
	retlw	0C8h
	retlw	0Eh
	retlw	06Ch
	retlw	01Ch
	retlw	06Fh
	retlw	0F8h
	retlw	017h
	retlw	0E0h
	retlw	011h
	retlw	0
	retlw	0
	retlw	0Eh
	retlw	0
	retlw	070h
	retlw	0
	retlw	07Ch
	retlw	080h
	retlw	03Fh
	retlw	0E0h
	retlw	07h
	retlw	0FCh
	retlw	07h
	retlw	03Eh
	retlw	06h
	retlw	06h
	retlw	06h
	retlw	03Eh
	retlw	06h
	retlw	0F8h
	retlw	07h
	retlw	0E0h
	retlw	0Fh
	retlw	080h
	retlw	03Fh
	retlw	0
	retlw	07Ch
	retlw	0
	retlw	070h
	retlw	0
	retlw	0
	retlw	0
	retlw	0
	retlw	0
	retlw	0
	retlw	0
	retlw	0
	retlw	0
	retlw	0
	retlw	0
	retlw	0
	retlw	0Dh
	retlw	0FEh
	retlw	07Fh
	retlw	0FEh
	retlw	07Fh
	retlw	0FEh
	retlw	07Fh
	retlw	086h
	retlw	061h
	retlw	086h
	retlw	061h
	retlw	086h
	retlw	061h
	retlw	086h
	retlw	061h
	retlw	086h
	retlw	061h
	retlw	0FEh
	retlw	073h
	retlw	0FCh
	retlw	07Fh
	retlw	07Ch
	retlw	03Fh
	retlw	0
	retlw	01Eh
	retlw	0
	retlw	0
	retlw	0
	retlw	0
	retlw	0
	retlw	0
	retlw	0
	retlw	0
	retlw	0
	retlw	0
	retlw	0
	retlw	0
	retlw	0
	retlw	0
	retlw	0Eh
	retlw	0E0h
	retlw	07h
	retlw	0F8h
	retlw	01Fh
	retlw	0FCh
	retlw	03Fh
	retlw	01Ch
	retlw	038h
	retlw	0Eh
	retlw	070h
	retlw	06h
	retlw	060h
	retlw	06h
	retlw	060h
	retlw	06h
	retlw	060h
	retlw	06h
	retlw	060h
	retlw	0Eh
	retlw	070h
	retlw	03Ch
	retlw	03Ch
	retlw	038h
	retlw	01Eh
	retlw	030h
	retlw	0Ch
	retlw	0
	retlw	0
	retlw	0
	retlw	0
	retlw	0
	retlw	0
	retlw	0
	retlw	0
	retlw	0
	retlw	0
	retlw	0
	retlw	0
	retlw	0Eh
	retlw	0
	retlw	0
	retlw	0FEh
	retlw	07Fh
	retlw	0FEh
	retlw	07Fh
	retlw	0FEh
	retlw	07Fh
	retlw	06h
	retlw	060h
	retlw	06h
	retlw	060h
	retlw	06h
	retlw	060h
	retlw	06h
	retlw	060h
	retlw	0Eh
	retlw	070h
	retlw	01Eh
	retlw	078h
	retlw	0FCh
	retlw	03Fh
	retlw	0F8h
	retlw	01Fh
	retlw	0E0h
	retlw	07h
	retlw	0
	retlw	0
	retlw	0
	retlw	0
	retlw	0
	retlw	0
	retlw	0
	retlw	0
	retlw	0
	retlw	0
	retlw	0
	retlw	0
	retlw	0Dh
	retlw	0
	retlw	0
	retlw	0FEh
	retlw	07Fh
	retlw	0FEh
	retlw	07Fh
	retlw	0FEh
	retlw	07Fh
	retlw	086h
	retlw	061h
	retlw	086h
	retlw	061h
	retlw	086h
	retlw	061h
	retlw	086h
	retlw	061h
	retlw	086h
	retlw	061h
	retlw	086h
	retlw	061h
	retlw	086h
	retlw	061h
	retlw	06h
	retlw	060h
	retlw	0
	retlw	0
	retlw	0
	retlw	0
	retlw	0
	retlw	0
	retlw	0
	retlw	0
	retlw	0
	retlw	0
	retlw	0
	retlw	0
	retlw	0
	retlw	0
	retlw	0Bh
	retlw	0FEh
	retlw	07Fh
	retlw	0FEh
	retlw	07Fh
	retlw	0FEh
	retlw	07Fh
	retlw	086h
	retlw	01h
	retlw	086h
	retlw	01h
	retlw	086h
	retlw	01h
	retlw	086h
	retlw	01h
	retlw	086h
	retlw	01h
	retlw	086h
	retlw	01h
	retlw	06h
	retlw	0
	retlw	0
	retlw	0
	retlw	0
	retlw	0
	retlw	0
	retlw	0
	retlw	0
	retlw	0
	retlw	0
	retlw	0
	retlw	0
	retlw	0
	retlw	0
	retlw	0
	retlw	0
	retlw	0
	retlw	0
	retlw	0
	retlw	0Fh
	retlw	0E0h
	retlw	07h
	retlw	0F8h
	retlw	01Fh
	retlw	0FCh
	retlw	03Fh
	retlw	01Ch
	retlw	038h
	retlw	0Eh
	retlw	070h
	retlw	06h
	retlw	060h
	retlw	06h
	retlw	060h
	retlw	06h
	retlw	063h
	retlw	06h
	retlw	063h
	retlw	0Eh
	retlw	063h
	retlw	01Eh
	retlw	073h
	retlw	03Ch
	retlw	03Fh
	retlw	038h
	retlw	03Fh
	retlw	020h
	retlw	01Fh
	retlw	0
	retlw	0
	retlw	0
	retlw	0
	retlw	0
	retlw	0
	retlw	0
	retlw	0
	retlw	0
	retlw	0
	retlw	0Eh
	retlw	0
	retlw	0
	retlw	0FEh
	retlw	07Fh
	retlw	0FEh
	retlw	07Fh
	retlw	0FEh
	retlw	07Fh
	retlw	0C0h
	retlw	0
	retlw	0C0h
	retlw	0
	retlw	0C0h
	retlw	0
	retlw	0C0h
	retlw	0
	retlw	0C0h
	retlw	0
	retlw	0C0h
	retlw	0
	retlw	0FEh
	retlw	07Fh
	retlw	0FEh
	retlw	07Fh
	retlw	0FEh
	retlw	07Fh
	retlw	0
	retlw	0
	retlw	0
	retlw	0
	retlw	0
	retlw	0
	retlw	0
	retlw	0
	retlw	0
	retlw	0
	retlw	0
	retlw	0
	retlw	05h
	retlw	0
	retlw	0
	retlw	0FEh
	retlw	07Fh
	retlw	0FEh
	retlw	07Fh
	retlw	0FEh
	retlw	07Fh
	retlw	0
	retlw	0
	retlw	0
	retlw	0
	retlw	0
	retlw	0
	retlw	0
	retlw	0
	retlw	0
	retlw	0
	retlw	0
	retlw	0
	retlw	0
	retlw	0
	retlw	0
	retlw	0
	retlw	0
	retlw	0
	retlw	0
	retlw	0
	retlw	0
	retlw	0
	retlw	0
	retlw	0
	retlw	0
	retlw	0
	retlw	0
	retlw	0
	retlw	0
	retlw	0
	retlw	0Bh
	retlw	0
	retlw	0Ch
	retlw	0
	retlw	03Eh
	retlw	0
	retlw	07Eh
	retlw	0
	retlw	070h
	retlw	0
	retlw	060h
	retlw	0
	retlw	060h
	retlw	0
	retlw	070h
	retlw	0FEh
	retlw	07Fh
	retlw	0FEh
	retlw	03Fh
	retlw	0FEh
	retlw	01Fh
	retlw	0
	retlw	0
	retlw	0
	retlw	0
	retlw	0
	retlw	0
	retlw	0
	retlw	0
	retlw	0
	retlw	0
	retlw	0
	retlw	0
	retlw	0
	retlw	0
	retlw	0
	retlw	0
	retlw	0
	retlw	0
	retlw	0Eh
	retlw	0
	retlw	0
	retlw	0FEh
	retlw	07Fh
	retlw	0FEh
	retlw	07Fh
	retlw	0FEh
	retlw	07Fh
	retlw	080h
	retlw	03h
	retlw	0C0h
	retlw	01h
	retlw	0E0h
	retlw	0
	retlw	0F0h
	retlw	03h
	retlw	0B8h
	retlw	07h
	retlw	03Ch
	retlw	01Fh
	retlw	01Eh
	retlw	03Eh
	retlw	0Eh
	retlw	078h
	retlw	04h
	retlw	070h
	retlw	0
	retlw	0
	retlw	0
	retlw	0
	retlw	0
	retlw	0
	retlw	0
	retlw	0
	retlw	0
	retlw	0
	retlw	0
	retlw	0
	retlw	0Bh
	retlw	0FEh
	retlw	07Fh
	retlw	0FEh
	retlw	07Fh
	retlw	0FEh
	retlw	07Fh
	retlw	0
	retlw	060h
	retlw	0
	retlw	060h
	retlw	0
	retlw	060h
	retlw	0
	retlw	060h
	retlw	0
	retlw	060h
	retlw	0
	retlw	060h
	retlw	0
	retlw	060h
	retlw	0
	retlw	0
	retlw	0
	retlw	0
	retlw	0
	retlw	0
	retlw	0
	retlw	0
	retlw	0
	retlw	0
	retlw	0
	retlw	0
	retlw	0
	retlw	0
	retlw	0
	retlw	0
	retlw	0
	retlw	0
	retlw	0Fh
	retlw	0FEh
	retlw	07Fh
	retlw	0FEh
	retlw	07Fh
	retlw	0FEh
	retlw	07Fh
	retlw	03Eh
	retlw	0
	retlw	0FEh
	retlw	03h
	retlw	0F0h
	retlw	03Fh
	retlw	0
	retlw	07Fh
	retlw	0
	retlw	07Fh
	retlw	0E0h
	retlw	03Fh
	retlw	0FCh
	retlw	03h
	retlw	03Eh
	retlw	0
	retlw	0FEh
	retlw	07Fh
	retlw	0FEh
	retlw	07Fh
	retlw	0FEh
	retlw	07Fh
	retlw	0
	retlw	0
	retlw	0
	retlw	0
	retlw	0
	retlw	0
	retlw	0
	retlw	0
	retlw	0
	retlw	0
	retlw	0Eh
	retlw	0FCh
	retlw	07Fh
	retlw	0FEh
	retlw	07Fh
	retlw	0FEh
	retlw	07Fh
	retlw	03Ch
	retlw	0
	retlw	078h
	retlw	0
	retlw	0E0h
	retlw	01h
	retlw	0C0h
	retlw	03h
	retlw	080h
	retlw	07h
	retlw	0
	retlw	01Eh
	retlw	0
	retlw	03Ch
	retlw	0FEh
	retlw	07Fh
	retlw	0FEh
	retlw	07Fh
	retlw	0FEh
	retlw	07Fh
	retlw	0
	retlw	0
	retlw	0
	retlw	0
	retlw	0
	retlw	0
	retlw	0
	retlw	0
	retlw	0
	retlw	0
	retlw	0
	retlw	0
	retlw	0Fh
	retlw	0E0h
	retlw	07h
	retlw	0F8h
	retlw	01Fh
	retlw	0FCh
	retlw	03Fh
	retlw	01Ch
	retlw	038h
	retlw	0Eh
	retlw	070h
	retlw	06h
	retlw	060h
	retlw	06h
	retlw	060h
	retlw	06h
	retlw	060h
	retlw	06h
	retlw	060h
	retlw	0Eh
	retlw	070h
	retlw	01Ch
	retlw	038h
	retlw	0FCh
	retlw	03Fh
	retlw	0F8h
	retlw	01Fh
	retlw	0E0h
	retlw	07h
	retlw	0
	retlw	0
	retlw	0
	retlw	0
	retlw	0
	retlw	0
	retlw	0
	retlw	0
	retlw	0
	retlw	0
	retlw	0Dh
	retlw	0
	retlw	0
	retlw	0FEh
	retlw	07Fh
	retlw	0FEh
	retlw	07Fh
	retlw	0FEh
	retlw	07Fh
	retlw	086h
	retlw	01h
	retlw	086h
	retlw	01h
	retlw	086h
	retlw	01h
	retlw	086h
	retlw	01h
	retlw	0CEh
	retlw	01h
	retlw	0FEh
	retlw	01h
	retlw	0FCh
	retlw	0
	retlw	078h
	retlw	0
	retlw	0
	retlw	0
	retlw	0
	retlw	0
	retlw	0
	retlw	0
	retlw	0
	retlw	0
	retlw	0
	retlw	0
	retlw	0
	retlw	0
	retlw	0
	retlw	0
	retlw	010h
	retlw	0E0h
	retlw	07h
	retlw	0F8h
	retlw	01Fh
	retlw	0FCh
	retlw	03Fh
	retlw	01Ch
	retlw	038h
	retlw	0Eh
	retlw	070h
	retlw	06h
	retlw	060h
	retlw	06h
	retlw	06Ch
	retlw	06h
	retlw	06Ch
	retlw	06h
	retlw	078h
	retlw	0Eh
	retlw	078h
	retlw	01Ch
	retlw	038h
	retlw	0FCh
	retlw	07Fh
	retlw	0F8h
	retlw	0FFh
	retlw	0E0h
	retlw	0C7h
	retlw	0
	retlw	080h
	retlw	0
	retlw	0
	retlw	0
	retlw	0
	retlw	0
	retlw	0
	retlw	0
	retlw	0
	retlw	0Dh
	retlw	0FEh
	retlw	07Fh
	retlw	0FEh
	retlw	07Fh
	retlw	0FEh
	retlw	07Fh
	retlw	086h
	retlw	01h
	retlw	086h
	retlw	01h
	retlw	086h
	retlw	01h
	retlw	086h
	retlw	03h
	retlw	086h
	retlw	07h
	retlw	0CEh
	retlw	01Fh
	retlw	0FEh
	retlw	03Ch
	retlw	0FCh
	retlw	078h
	retlw	078h
	retlw	070h
	retlw	0
	retlw	0
	retlw	0
	retlw	0
	retlw	0
	retlw	0
	retlw	0
	retlw	0
	retlw	0
	retlw	0
	retlw	0
	retlw	0
	retlw	0
	retlw	0
	retlw	0Dh
	retlw	078h
	retlw	01Ch
	retlw	0FCh
	retlw	03Ch
	retlw	0FCh
	retlw	038h
	retlw	0CEh
	retlw	070h
	retlw	0C6h
	retlw	061h
	retlw	0C6h
	retlw	061h
	retlw	086h
	retlw	061h
	retlw	086h
	retlw	061h
	retlw	08Eh
	retlw	073h
	retlw	0BCh
	retlw	03Fh
	retlw	038h
	retlw	03Fh
	retlw	0
	retlw	01Eh
	retlw	0
	retlw	0
	retlw	0
	retlw	0
	retlw	0
	retlw	0
	retlw	0
	retlw	0
	retlw	0
	retlw	0
	retlw	0
	retlw	0
	retlw	0
	retlw	0
	retlw	0Ch
	retlw	06h
	retlw	0
	retlw	06h
	retlw	0
	retlw	06h
	retlw	0
	retlw	06h
	retlw	0
	retlw	0FEh
	retlw	07Fh
	retlw	0FEh
	retlw	07Fh
	retlw	0FEh
	retlw	07Fh
	retlw	06h
	retlw	0
	retlw	06h
	retlw	0
	retlw	06h
	retlw	0
	retlw	06h
	retlw	0
	retlw	0
	retlw	0
	retlw	0
	retlw	0
	retlw	0
	retlw	0
	retlw	0
	retlw	0
	retlw	0
	retlw	0
	retlw	0
	retlw	0
	retlw	0
	retlw	0
	retlw	0
	retlw	0
	retlw	0Eh
	retlw	0
	retlw	0
	retlw	0FEh
	retlw	0Fh
	retlw	0FEh
	retlw	03Fh
	retlw	0FEh
	retlw	03Fh
	retlw	0
	retlw	070h
	retlw	0
	retlw	060h
	retlw	0
	retlw	060h
	retlw	0
	retlw	060h
	retlw	0
	retlw	060h
	retlw	0
	retlw	070h
	retlw	0FEh
	retlw	03Fh
	retlw	0FEh
	retlw	03Fh
	retlw	0FEh
	retlw	0Fh
	retlw	0
	retlw	0
	retlw	0
	retlw	0
	retlw	0
	retlw	0
	retlw	0
	retlw	0
	retlw	0
	retlw	0
	retlw	0
	retlw	0
	retlw	0Eh
	retlw	0Eh
	retlw	0
	retlw	03Eh
	retlw	0
	retlw	0FEh
	retlw	01h
	retlw	0F0h
	retlw	07h
	retlw	0C0h
	retlw	03Fh
	retlw	0
	retlw	07Eh
	retlw	0
	retlw	070h
	retlw	0
	retlw	07Eh
	retlw	080h
	retlw	03Fh
	retlw	0F0h
	retlw	07h
	retlw	0FEh
	retlw	01h
	retlw	03Eh
	retlw	0
	retlw	0Eh
	retlw	0
	retlw	0
	retlw	0
	retlw	0
	retlw	0
	retlw	0
	retlw	0
	retlw	0
	retlw	0
	retlw	0
	retlw	0
	retlw	0
	retlw	0
	retlw	013h
	retlw	01Eh
	retlw	0
	retlw	0FEh
	retlw	0
	retlw	0FCh
	retlw	0Fh
	retlw	0C0h
	retlw	07Fh
	retlw	0
	retlw	07Ch
	retlw	0
	retlw	07Fh
	retlw	0E0h
	retlw	01Fh
	retlw	0FCh
	retlw	03h
	retlw	03Eh
	retlw	0
	retlw	03Eh
	retlw	0
	retlw	0FCh
	retlw	01h
	retlw	0E0h
	retlw	01Fh
	retlw	0
	retlw	07Fh
	retlw	0
	retlw	07Ch
	retlw	0C0h
	retlw	07Fh
	retlw	0FCh
	retlw	0Fh
	retlw	0FEh
	retlw	0
	retlw	01Eh
	retlw	0
	retlw	0
	retlw	0
	retlw	0Dh
	retlw	04h
	retlw	060h
	retlw	0Eh
	retlw	078h
	retlw	03Eh
	retlw	07Ch
	retlw	07Ch
	retlw	01Eh
	retlw	0F0h
	retlw	0Fh
	retlw	0E0h
	retlw	07h
	retlw	0E0h
	retlw	07h
	retlw	0F0h
	retlw	0Fh
	retlw	078h
	retlw	01Eh
	retlw	03Eh
	retlw	07Ch
	retlw	0Eh
	retlw	078h
	retlw	06h
	retlw	060h
	retlw	0
	retlw	0
	retlw	0
	retlw	0
	retlw	0
	retlw	0
	retlw	0
	retlw	0
	retlw	0
	retlw	0
	retlw	0
	retlw	0
	retlw	0
	retlw	0
	retlw	0Ch
	retlw	0Eh
	retlw	0
	retlw	01Eh
	retlw	0
	retlw	07Ch
	retlw	0
	retlw	0F8h
	retlw	0
	retlw	0E0h
	retlw	07Fh
	retlw	0C0h
	retlw	07Fh
	retlw	0E0h
	retlw	07Fh
	retlw	0F8h
	retlw	0
	retlw	07Ch
	retlw	0
	retlw	01Eh
	retlw	0
	retlw	0Eh
	retlw	0
	retlw	0
	retlw	0
	retlw	0
	retlw	0
	retlw	0
	retlw	0
	retlw	0
	retlw	0
	retlw	0
	retlw	0
	retlw	0
	retlw	0
	retlw	0
	retlw	0
	retlw	0
	retlw	0
	retlw	0Eh
	retlw	0
	retlw	070h
	retlw	06h
	retlw	078h
	retlw	06h
	retlw	07Ch
	retlw	06h
	retlw	07Eh
	retlw	06h
	retlw	06Fh
	retlw	086h
	retlw	067h
	retlw	0C6h
	retlw	063h
	retlw	0F6h
	retlw	061h
	retlw	0FEh
	retlw	060h
	retlw	07Eh
	retlw	060h
	retlw	01Eh
	retlw	060h
	retlw	0Eh
	retlw	060h
	retlw	0
	retlw	060h
	retlw	0
	retlw	0
	retlw	0
	retlw	0
	retlw	0
	retlw	0
	retlw	0
	retlw	0
	retlw	0
	retlw	0
	retlw	0
	retlw	0
	retlw	07h
	retlw	0FEh
	retlw	07Fh
	retlw	0FEh
	retlw	07Fh
	retlw	0FEh
	retlw	07Fh
	retlw	06h
	retlw	060h
	retlw	06h
	retlw	060h
	retlw	06h
	retlw	060h
	retlw	0
	retlw	0
	retlw	0
	retlw	0
	retlw	0
	retlw	0
	retlw	0
	retlw	0
	retlw	0
	retlw	0
	retlw	0
	retlw	0
	retlw	0
	retlw	0
	retlw	0
	retlw	0
	retlw	0
	retlw	0
	retlw	0
	retlw	0
	retlw	0
	retlw	0
	retlw	0
	retlw	0
	retlw	0
	retlw	0
	retlw	06h
	retlw	06h
	retlw	0
	retlw	07Eh
	retlw	0
	retlw	0F8h
	retlw	07h
	retlw	080h
	retlw	07Fh
	retlw	0
	retlw	078h
	retlw	0
	retlw	0
	retlw	0
	retlw	0
	retlw	0
	retlw	0
	retlw	0
	retlw	0
	retlw	0
	retlw	0
	retlw	0
	retlw	0
	retlw	0
	retlw	0
	retlw	0
	retlw	0
	retlw	0
	retlw	0
	retlw	0
	retlw	0
	retlw	0
	retlw	0
	retlw	0
	retlw	0
	retlw	0
	retlw	0
	retlw	0
	retlw	0
	retlw	07h
	retlw	06h
	retlw	060h
	retlw	06h
	retlw	060h
	retlw	06h
	retlw	060h
	retlw	0FEh
	retlw	07Fh
	retlw	0FEh
	retlw	07Fh
	retlw	0FEh
	retlw	07Fh
	retlw	0
	retlw	0
	retlw	0
	retlw	0
	retlw	0
	retlw	0
	retlw	0
	retlw	0
	retlw	0
	retlw	0
	retlw	0
	retlw	0
	retlw	0
	retlw	0
	retlw	0
	retlw	0
	retlw	0
	retlw	0
	retlw	0
	retlw	0
	retlw	0
	retlw	0
	retlw	0
	retlw	0
	retlw	0
	retlw	0
	retlw	0Bh
	retlw	0
	retlw	01h
	retlw	0C0h
	retlw	01h
	retlw	0F0h
	retlw	01h
	retlw	0FCh
	retlw	0
	retlw	01Eh
	retlw	0
	retlw	03Eh
	retlw	0
	retlw	0FCh
	retlw	0
	retlw	0F0h
	retlw	01h
	retlw	080h
	retlw	01h
	retlw	0
	retlw	01h
	retlw	0
	retlw	0
	retlw	0
	retlw	0
	retlw	0
	retlw	0
	retlw	0
	retlw	0
	retlw	0
	retlw	0
	retlw	0
	retlw	0
	retlw	0
	retlw	0
	retlw	0
	retlw	0
	retlw	0
	retlw	0
	retlw	0Bh
	retlw	0
	retlw	040h
	retlw	0
	retlw	040h
	retlw	0
	retlw	040h
	retlw	0
	retlw	040h
	retlw	0
	retlw	040h
	retlw	0
	retlw	040h
	retlw	0
	retlw	040h
	retlw	0
	retlw	040h
	retlw	0
	retlw	040h
	retlw	0
	retlw	040h
	retlw	0
	retlw	0
	retlw	0
	retlw	0
	retlw	0
	retlw	0
	retlw	0
	retlw	0
	retlw	0
	retlw	0
	retlw	0
	retlw	0
	retlw	0
	retlw	0
	retlw	0
	retlw	0
	retlw	0
	retlw	0
	retlw	05h
	retlw	04h
	retlw	0
	retlw	0Ch
	retlw	0
	retlw	01Ch
	retlw	0
	retlw	010h
	retlw	0
	retlw	0
	retlw	0
	retlw	0
	retlw	0
	retlw	0
	retlw	0
	retlw	0
	retlw	0
	retlw	0
	retlw	0
	retlw	0
	retlw	0
	retlw	0
	retlw	0
	retlw	0
	retlw	0
	retlw	0
	retlw	0
	retlw	0
	retlw	0
	retlw	0
	retlw	0
	retlw	0
	retlw	0
	retlw	0
	retlw	0
	retlw	0
	retlw	0
	retlw	0
	retlw	0
	retlw	0Ch
	retlw	0
	retlw	01Ch
	retlw	060h
	retlw	03Eh
	retlw	070h
	retlw	03Fh
	retlw	030h
	retlw	033h
	retlw	030h
	retlw	033h
	retlw	030h
	retlw	011h
	retlw	0B0h
	retlw	019h
	retlw	0F0h
	retlw	01Fh
	retlw	0E0h
	retlw	03Fh
	retlw	0E0h
	retlw	03Fh
	retlw	0
	retlw	020h
	retlw	0
	retlw	0
	retlw	0
	retlw	0
	retlw	0
	retlw	0
	retlw	0
	retlw	0
	retlw	0
	retlw	0
	retlw	0
	retlw	0
	retlw	0
	retlw	0
	retlw	0
	retlw	0
	retlw	0Ch
	retlw	0FEh
	retlw	07Fh
	retlw	0FEh
	retlw	07Fh
	retlw	0FEh
	retlw	07Fh
	retlw	0C0h
	retlw	030h
	retlw	060h
	retlw	060h
	retlw	060h
	retlw	060h
	retlw	060h
	retlw	060h
	retlw	0E0h
	retlw	070h
	retlw	0E0h
	retlw	07Fh
	retlw	0C0h
	retlw	03Fh
	retlw	080h
	retlw	0Fh
	retlw	0
	retlw	0
	retlw	0
	retlw	0
	retlw	0
	retlw	0
	retlw	0
	retlw	0
	retlw	0
	retlw	0
	retlw	0
	retlw	0
	retlw	0
	retlw	0
	retlw	0
	retlw	0
	retlw	0Bh
	retlw	080h
	retlw	07h
	retlw	0E0h
	retlw	01Fh
	retlw	0E0h
	retlw	01Fh
	retlw	070h
	retlw	038h
	retlw	030h
	retlw	030h
	retlw	030h
	retlw	030h
	retlw	030h
	retlw	030h
	retlw	070h
	retlw	038h
	retlw	0E0h
	retlw	01Ch
	retlw	0E0h
	retlw	01Ch
	retlw	0
	retlw	0
	retlw	0
	retlw	0
	retlw	0
	retlw	0
	retlw	0
	retlw	0
	retlw	0
	retlw	0
	retlw	0
	retlw	0
	retlw	0
	retlw	0
	retlw	0
	retlw	0
	retlw	0
	retlw	0
	retlw	0Bh
	retlw	080h
	retlw	01Fh
	retlw	0C0h
	retlw	03Fh
	retlw	0E0h
	retlw	07Fh
	retlw	0E0h
	retlw	070h
	retlw	060h
	retlw	060h
	retlw	060h
	retlw	060h
	retlw	0C0h
	retlw	030h
	retlw	0FEh
	retlw	07Fh
	retlw	0FEh
	retlw	07Fh
	retlw	0FEh
	retlw	07Fh
	retlw	0
	retlw	0
	retlw	0
	retlw	0
	retlw	0
	retlw	0
	retlw	0
	retlw	0
	retlw	0
	retlw	0
	retlw	0
	retlw	0
	retlw	0
	retlw	0
	retlw	0
	retlw	0
	retlw	0
	retlw	0
	retlw	0Bh
	retlw	080h
	retlw	07h
	retlw	0E0h
	retlw	01Fh
	retlw	0E0h
	retlw	01Fh
	retlw	070h
	retlw	03Bh
	retlw	030h
	retlw	033h
	retlw	030h
	retlw	033h
	retlw	030h
	retlw	033h
	retlw	070h
	retlw	033h
	retlw	0E0h
	retlw	01Bh
	retlw	0C0h
	retlw	01Bh
	retlw	0
	retlw	0
	retlw	0
	retlw	0
	retlw	0
	retlw	0
	retlw	0
	retlw	0
	retlw	0
	retlw	0
	retlw	0
	retlw	0
	retlw	0
	retlw	0
	retlw	0
	retlw	0
	retlw	0
	retlw	0
	retlw	09h
	retlw	060h
	retlw	0
	retlw	060h
	retlw	0
	retlw	0FCh
	retlw	07Fh
	retlw	0FEh
	retlw	07Fh
	retlw	0FEh
	retlw	07Fh
	retlw	066h
	retlw	0
	retlw	066h
	retlw	0
	retlw	06h
	retlw	0
	retlw	0
	retlw	0
	retlw	0
	retlw	0
	retlw	0
	retlw	0
	retlw	0
	retlw	0
	retlw	0
	retlw	0
	retlw	0
	retlw	0
	retlw	0
	retlw	0
	retlw	0
	retlw	0
	retlw	0
	retlw	0
	retlw	0
	retlw	0
	retlw	0
	retlw	0
	retlw	0Bh
	retlw	0F8h
	retlw	01h
	retlw	0FCh
	retlw	033h
	retlw	0FEh
	retlw	077h
	retlw	0Eh
	retlw	067h
	retlw	06h
	retlw	066h
	retlw	06h
	retlw	066h
	retlw	0Ch
	retlw	073h
	retlw	0FEh
	retlw	07Fh
	retlw	0FEh
	retlw	03Fh
	retlw	0FEh
	retlw	01Fh
	retlw	0
	retlw	0
	retlw	0
	retlw	0
	retlw	0
	retlw	0
	retlw	0
	retlw	0
	retlw	0
	retlw	0
	retlw	0
	retlw	0
	retlw	0
	retlw	0
	retlw	0
	retlw	0
	retlw	0
	retlw	0
	retlw	0Bh
	retlw	0FEh
	retlw	07Fh
	retlw	0FEh
	retlw	07Fh
	retlw	0FEh
	retlw	07Fh
	retlw	0C0h
	retlw	0
	retlw	060h
	retlw	0
	retlw	060h
	retlw	0
	retlw	060h
	retlw	0
	retlw	0E0h
	retlw	07Fh
	retlw	0C0h
	retlw	07Fh
	retlw	080h
	retlw	07Fh
	retlw	0
	retlw	0
	retlw	0
	retlw	0
	retlw	0
	retlw	0
	retlw	0
	retlw	0
	retlw	0
	retlw	0
	retlw	0
	retlw	0
	retlw	0
	retlw	0
	retlw	0
	retlw	0
	retlw	0
	retlw	0
	retlw	04h
	retlw	0E6h
	retlw	07Fh
	retlw	0E6h
	retlw	07Fh
	retlw	0E6h
	retlw	07Fh
	retlw	0
	retlw	0
	retlw	0
	retlw	0
	retlw	0
	retlw	0
	retlw	0
	retlw	0
	retlw	0
	retlw	0
	retlw	0
	retlw	0
	retlw	0
	retlw	0
	retlw	0
	retlw	0
	retlw	0
	retlw	0
	retlw	0
	retlw	0
	retlw	0
	retlw	0
	retlw	0
	retlw	0
	retlw	0
	retlw	0
	retlw	0
	retlw	0
	retlw	0
	retlw	0
	retlw	0
	retlw	0
	retlw	05h
	retlw	0
	retlw	060h
	retlw	0E6h
	retlw	07Fh
	retlw	0E6h
	retlw	07Fh
	retlw	0E6h
	retlw	03Fh
	retlw	0
	retlw	0
	retlw	0
	retlw	0
	retlw	0
	retlw	0
	retlw	0
	retlw	0
	retlw	0
	retlw	0
	retlw	0
	retlw	0
	retlw	0
	retlw	0
	retlw	0
	retlw	0
	retlw	0
	retlw	0
	retlw	0
	retlw	0
	retlw	0
	retlw	0
	retlw	0
	retlw	0
	retlw	0
	retlw	0
	retlw	0
	retlw	0
	retlw	0
	retlw	0
	retlw	0Bh
	retlw	0FEh
	retlw	07Fh
	retlw	0FEh
	retlw	07Fh
	retlw	0FEh
	retlw	07Fh
	retlw	0
	retlw	07h
	retlw	080h
	retlw	03h
	retlw	0C0h
	retlw	0Fh
	retlw	0E0h
	retlw	01Eh
	retlw	0E0h
	retlw	078h
	retlw	060h
	retlw	070h
	retlw	0
	retlw	040h
	retlw	0
	retlw	0
	retlw	0
	retlw	0
	retlw	0
	retlw	0
	retlw	0
	retlw	0
	retlw	0
	retlw	0
	retlw	0
	retlw	0
	retlw	0
	retlw	0
	retlw	0
	retlw	0
	retlw	0
	retlw	0
	retlw	04h
	retlw	0FEh
	retlw	07Fh
	retlw	0FEh
	retlw	07Fh
	retlw	0FEh
	retlw	07Fh
	retlw	0
	retlw	0
	retlw	0
	retlw	0
	retlw	0
	retlw	0
	retlw	0
	retlw	0
	retlw	0
	retlw	0
	retlw	0
	retlw	0
	retlw	0
	retlw	0
	retlw	0
	retlw	0
	retlw	0
	retlw	0
	retlw	0
	retlw	0
	retlw	0
	retlw	0
	retlw	0
	retlw	0
	retlw	0
	retlw	0
	retlw	0
	retlw	0
	retlw	0
	retlw	0
	retlw	0
	retlw	0
	retlw	011h
	retlw	0F0h
	retlw	03Fh
	retlw	0F0h
	retlw	03Fh
	retlw	0F0h
	retlw	03Fh
	retlw	060h
	retlw	0
	retlw	030h
	retlw	0
	retlw	030h
	retlw	0
	retlw	0F0h
	retlw	03Fh
	retlw	0F0h
	retlw	03Fh
	retlw	0E0h
	retlw	03Fh
	retlw	060h
	retlw	0
	retlw	030h
	retlw	0
	retlw	030h
	retlw	0
	retlw	030h
	retlw	0
	retlw	0F0h
	retlw	03Fh
	retlw	0E0h
	retlw	03Fh
	retlw	0E0h
	retlw	03Fh
	retlw	0
	retlw	0
	retlw	0
	retlw	0
	retlw	0
	retlw	0
	retlw	0Bh
	retlw	0F0h
	retlw	03Fh
	retlw	0F0h
	retlw	03Fh
	retlw	0F0h
	retlw	03Fh
	retlw	060h
	retlw	0
	retlw	030h
	retlw	0
	retlw	030h
	retlw	0
	retlw	030h
	retlw	0
	retlw	0F0h
	retlw	03Fh
	retlw	0E0h
	retlw	03Fh
	retlw	0C0h
	retlw	03Fh
	retlw	0
	retlw	0
	retlw	0
	retlw	0
	retlw	0
	retlw	0
	retlw	0
	retlw	0
	retlw	0
	retlw	0
	retlw	0
	retlw	0
	retlw	0
	retlw	0
	retlw	0
	retlw	0
	retlw	0
	retlw	0
	retlw	0Ch
	retlw	080h
	retlw	07h
	retlw	0E0h
	retlw	01Fh
	retlw	0E0h
	retlw	01Fh
	retlw	070h
	retlw	038h
	retlw	030h
	retlw	030h
	retlw	030h
	retlw	030h
	retlw	030h
	retlw	030h
	retlw	070h
	retlw	038h
	retlw	0E0h
	retlw	01Fh
	retlw	0E0h
	retlw	01Fh
	retlw	080h
	retlw	07h
	retlw	0
	retlw	0
	retlw	0
	retlw	0
	retlw	0
	retlw	0
	retlw	0
	retlw	0
	retlw	0
	retlw	0
	retlw	0
	retlw	0
	retlw	0
	retlw	0
	retlw	0
	retlw	0
	retlw	0Ch
	retlw	0FCh
	retlw	0FFh
	retlw	0FCh
	retlw	0FFh
	retlw	0FCh
	retlw	0FFh
	retlw	018h
	retlw	06h
	retlw	0Ch
	retlw	0Ch
	retlw	0Ch
	retlw	0Ch
	retlw	0Ch
	retlw	0Ch
	retlw	01Ch
	retlw	0Eh
	retlw	0FCh
	retlw	0Fh
	retlw	0F8h
	retlw	07h
	retlw	0E0h
	retlw	01h
	retlw	0
	retlw	0
	retlw	0
	retlw	0
	retlw	0
	retlw	0
	retlw	0
	retlw	0
	retlw	0
	retlw	0
	retlw	0
	retlw	0
	retlw	0
	retlw	0
	retlw	0
	retlw	0
	retlw	0Bh
	retlw	0F0h
	retlw	03h
	retlw	0F8h
	retlw	07h
	retlw	0FCh
	retlw	0Fh
	retlw	01Ch
	retlw	0Eh
	retlw	0Ch
	retlw	0Ch
	retlw	0Ch
	retlw	0Ch
	retlw	018h
	retlw	06h
	retlw	0FCh
	retlw	0FFh
	retlw	0FCh
	retlw	0FFh
	retlw	0FCh
	retlw	0FFh
	retlw	0
	retlw	0
	retlw	0
	retlw	0
	retlw	0
	retlw	0
	retlw	0
	retlw	0
	retlw	0
	retlw	0
	retlw	0
	retlw	0
	retlw	0
	retlw	0
	retlw	0
	retlw	0
	retlw	0
	retlw	0
	retlw	09h
	retlw	0F0h
	retlw	03Fh
	retlw	0F0h
	retlw	03Fh
	retlw	0F0h
	retlw	03Fh
	retlw	060h
	retlw	0
	retlw	030h
	retlw	0
	retlw	030h
	retlw	0
	retlw	030h
	retlw	0
	retlw	020h
	retlw	0
	retlw	0
	retlw	0
	retlw	0
	retlw	0
	retlw	0
	retlw	0
	retlw	0
	retlw	0
	retlw	0
	retlw	0
	retlw	0
	retlw	0
	retlw	0
	retlw	0
	retlw	0
	retlw	0
	retlw	0
	retlw	0
	retlw	0
	retlw	0
	retlw	0
	retlw	0
	retlw	0Ah
	retlw	0E0h
	retlw	01Ch
	retlw	0E0h
	retlw	01Dh
	retlw	0F0h
	retlw	039h
	retlw	030h
	retlw	033h
	retlw	030h
	retlw	033h
	retlw	070h
	retlw	033h
	retlw	070h
	retlw	03Fh
	retlw	060h
	retlw	01Eh
	retlw	0
	retlw	0Eh
	retlw	0
	retlw	0
	retlw	0
	retlw	0
	retlw	0
	retlw	0
	retlw	0
	retlw	0
	retlw	0
	retlw	0
	retlw	0
	retlw	0
	retlw	0
	retlw	0
	retlw	0
	retlw	0
	retlw	0
	retlw	0
	retlw	0
	retlw	0
	retlw	09h
	retlw	040h
	retlw	0
	retlw	060h
	retlw	0
	retlw	0FEh
	retlw	03Fh
	retlw	0FEh
	retlw	07Fh
	retlw	0FEh
	retlw	07Fh
	retlw	060h
	retlw	060h
	retlw	060h
	retlw	060h
	retlw	0
	retlw	060h
	retlw	0
	retlw	0
	retlw	0
	retlw	0
	retlw	0
	retlw	0
	retlw	0
	retlw	0
	retlw	0
	retlw	0
	retlw	0
	retlw	0
	retlw	0
	retlw	0
	retlw	0
	retlw	0
	retlw	0
	retlw	0
	retlw	0
	retlw	0
	retlw	0
	retlw	0
	retlw	0Bh
	retlw	0F0h
	retlw	0Fh
	retlw	0F0h
	retlw	01Fh
	retlw	0F0h
	retlw	03Fh
	retlw	0
	retlw	038h
	retlw	0
	retlw	030h
	retlw	0
	retlw	030h
	retlw	0
	retlw	018h
	retlw	0F0h
	retlw	03Fh
	retlw	0F0h
	retlw	03Fh
	retlw	0F0h
	retlw	03Fh
	retlw	0
	retlw	0
	retlw	0
	retlw	0
	retlw	0
	retlw	0
	retlw	0
	retlw	0
	retlw	0
	retlw	0
	retlw	0
	retlw	0
	retlw	0
	retlw	0
	retlw	0
	retlw	0
	retlw	0
	retlw	0
	retlw	0Bh
	retlw	070h
	retlw	0
	retlw	0F0h
	retlw	01h
	retlw	0E0h
	retlw	07h
	retlw	080h
	retlw	01Fh
	retlw	0
	retlw	03Ch
	retlw	0
	retlw	03Ch
	retlw	080h
	retlw	01Fh
	retlw	0E0h
	retlw	07h
	retlw	0F0h
	retlw	01h
	retlw	030h
	retlw	0
	retlw	0
	retlw	0
	retlw	0
	retlw	0
	retlw	0
	retlw	0
	retlw	0
	retlw	0
	retlw	0
	retlw	0
	retlw	0
	retlw	0
	retlw	0
	retlw	0
	retlw	0
	retlw	0
	retlw	0
	retlw	0
	retlw	011h
	retlw	070h
	retlw	0
	retlw	0F0h
	retlw	01h
	retlw	0E0h
	retlw	0Fh
	retlw	0
	retlw	03Fh
	retlw	0
	retlw	038h
	retlw	0
	retlw	03Fh
	retlw	0E0h
	retlw	0Fh
	retlw	0F0h
	retlw	01h
	retlw	0F0h
	retlw	01h
	retlw	0E0h
	retlw	0Fh
	retlw	0
	retlw	03Fh
	retlw	0
	retlw	038h
	retlw	0
	retlw	03Fh
	retlw	0E0h
	retlw	0Fh
	retlw	0F0h
	retlw	01h
	retlw	070h
	retlw	0
	retlw	0
	retlw	0
	retlw	0
	retlw	0
	retlw	0
	retlw	0
	retlw	0Bh
	retlw	030h
	retlw	030h
	retlw	070h
	retlw	038h
	retlw	0F0h
	retlw	03Ch
	retlw	0E0h
	retlw	01Fh
	retlw	0C0h
	retlw	0Fh
	retlw	0C0h
	retlw	0Fh
	retlw	0E0h
	retlw	01Fh
	retlw	0F0h
	retlw	03Ch
	retlw	070h
	retlw	038h
	retlw	030h
	retlw	030h
	retlw	0
	retlw	0
	retlw	0
	retlw	0
	retlw	0
	retlw	0
	retlw	0
	retlw	0
	retlw	0
	retlw	0
	retlw	0
	retlw	0
	retlw	0
	retlw	0
	retlw	0
	retlw	0
	retlw	0
	retlw	0
	retlw	0Bh
	retlw	01Ch
	retlw	0C0h
	retlw	07Ch
	retlw	0C0h
	retlw	0F8h
	retlw	0C1h
	retlw	0E0h
	retlw	0FFh
	retlw	0
	retlw	07Fh
	retlw	0
	retlw	03Fh
	retlw	0E0h
	retlw	0Fh
	retlw	0F8h
	retlw	01h
	retlw	07Ch
	retlw	0
	retlw	01Ch
	retlw	0
	retlw	0
	retlw	0
	retlw	0
	retlw	0
	retlw	0
	retlw	0
	retlw	0
	retlw	0
	retlw	0
	retlw	0
	retlw	0
	retlw	0
	retlw	0
	retlw	0
	retlw	0
	retlw	0
	retlw	0
	retlw	0
	retlw	0Bh
	retlw	060h
	retlw	060h
	retlw	060h
	retlw	070h
	retlw	060h
	retlw	078h
	retlw	060h
	retlw	07Ch
	retlw	060h
	retlw	06Eh
	retlw	060h
	retlw	067h
	retlw	0E0h
	retlw	063h
	retlw	0E0h
	retlw	061h
	retlw	0E0h
	retlw	060h
	retlw	0
	retlw	060h
	retlw	0
	retlw	0
	retlw	0
	retlw	0
	retlw	0
	retlw	0
	retlw	0
	retlw	0
	retlw	0
	retlw	0
	retlw	0
	retlw	0
	retlw	0
	retlw	0
	retlw	0
	retlw	0
	retlw	0
	retlw	0
	retlw	08h
	retlw	080h
	retlw	01h
	retlw	0C0h
	retlw	03h
	retlw	0FEh
	retlw	07Fh
	retlw	0FFh
	retlw	0FFh
	retlw	07Fh
	retlw	0FEh
	retlw	03h
	retlw	0C0h
	retlw	03h
	retlw	0C0h
	retlw	0
	retlw	0
	retlw	0
	retlw	0
	retlw	0
	retlw	0
	retlw	0
	retlw	0
	retlw	0
	retlw	0
	retlw	0
	retlw	0
	retlw	0
	retlw	0
	retlw	0
	retlw	0
	retlw	0
	retlw	0
	retlw	0
	retlw	0
	retlw	0
	retlw	0
	retlw	0
	retlw	0
	retlw	04h
	retlw	0
	retlw	0
	retlw	0FFh
	retlw	0FFh
	retlw	0FFh
	retlw	0FFh
	retlw	0
	retlw	0
	retlw	0
	retlw	0
	retlw	0
	retlw	0
	retlw	0
	retlw	0
	retlw	0
	retlw	0
	retlw	0
	retlw	0
	retlw	0
	retlw	0
	retlw	0
	retlw	0
	retlw	0
	retlw	0
	retlw	0
	retlw	0
	retlw	0
	retlw	0
	retlw	0
	retlw	0
	retlw	0
	retlw	0
	retlw	0
	retlw	0
	retlw	0
	retlw	0
	retlw	0
	retlw	0
	retlw	08h
	retlw	03h
	retlw	0C0h
	retlw	03h
	retlw	0C0h
	retlw	07Fh
	retlw	0FEh
	retlw	0FFh
	retlw	0FFh
	retlw	0FEh
	retlw	07Fh
	retlw	0C0h
	retlw	03h
	retlw	080h
	retlw	01h
	retlw	0
	retlw	0
	retlw	0
	retlw	0
	retlw	0
	retlw	0
	retlw	0
	retlw	0
	retlw	0
	retlw	0
	retlw	0
	retlw	0
	retlw	0
	retlw	0
	retlw	0
	retlw	0
	retlw	0
	retlw	0
	retlw	0
	retlw	0
	retlw	0
	retlw	0
	retlw	0
	retlw	0
	retlw	0Ch
	retlw	080h
	retlw	03h
	retlw	0C0h
	retlw	01h
	retlw	0C0h
	retlw	01h
	retlw	0C0h
	retlw	01h
	retlw	0C0h
	retlw	01h
	retlw	080h
	retlw	01h
	retlw	080h
	retlw	03h
	retlw	080h
	retlw	03h
	retlw	080h
	retlw	03h
	retlw	080h
	retlw	03h
	retlw	0C0h
	retlw	01h
	retlw	0
	retlw	0
	retlw	0
	retlw	0
	retlw	0
	retlw	0
	retlw	0
	retlw	0
	retlw	0
	retlw	0
	retlw	0
	retlw	0
	retlw	0
	retlw	0
	retlw	0
	retlw	0
	global	_font_5X7
psect	stringtext
	file	"C:\Users\ranjan\Desktop\matrix\font.c"
	line	111
_font_5X7:
	retlw	0
	retlw	0
	retlw	0
	retlw	0
	retlw	0
	retlw	0
	retlw	0
	retlw	05Fh
	retlw	0
	retlw	0
	retlw	0
	retlw	07h
	retlw	0
	retlw	07h
	retlw	0
	retlw	014h
	retlw	07Fh
	retlw	014h
	retlw	07Fh
	retlw	014h
	retlw	024h
	retlw	02Ah
	retlw	07Fh
	retlw	02Ah
	retlw	012h
	retlw	023h
	retlw	013h
	retlw	08h
	retlw	064h
	retlw	062h
	retlw	036h
	retlw	049h
	retlw	055h
	retlw	022h
	retlw	050h
	retlw	0
	retlw	05h
	retlw	03h
	retlw	0
	retlw	0
	retlw	0
	retlw	01Ch
	retlw	022h
	retlw	041h
	retlw	0
	retlw	0
	retlw	041h
	retlw	022h
	retlw	01Ch
	retlw	0
	retlw	08h
	retlw	02Ah
	retlw	01Ch
	retlw	02Ah
	retlw	08h
	retlw	08h
	retlw	08h
	retlw	03Eh
	retlw	08h
	retlw	08h
	retlw	0
	retlw	050h
	retlw	030h
	retlw	0
	retlw	0
	retlw	08h
	retlw	08h
	retlw	08h
	retlw	08h
	retlw	08h
	retlw	0
	retlw	030h
	retlw	030h
	retlw	0
	retlw	0
	retlw	020h
	retlw	010h
	retlw	08h
	retlw	04h
	retlw	02h
	retlw	03Eh
	retlw	051h
	retlw	049h
	retlw	045h
	retlw	03Eh
	retlw	0
	retlw	042h
	retlw	07Fh
	retlw	040h
	retlw	0
	retlw	042h
	retlw	061h
	retlw	051h
	retlw	049h
	retlw	046h
	retlw	021h
	retlw	041h
	retlw	045h
	retlw	04Bh
	retlw	031h
	retlw	018h
	retlw	014h
	retlw	012h
	retlw	07Fh
	retlw	010h
	retlw	027h
	retlw	045h
	retlw	045h
	retlw	045h
	retlw	039h
	retlw	03Ch
	retlw	04Ah
	retlw	049h
	retlw	049h
	retlw	030h
	retlw	01h
	retlw	071h
	retlw	09h
	retlw	05h
	retlw	03h
	retlw	036h
	retlw	049h
	retlw	049h
	retlw	049h
	retlw	036h
	retlw	06h
	retlw	049h
	retlw	049h
	retlw	029h
	retlw	01Eh
	retlw	0
	retlw	036h
	retlw	036h
	retlw	0
	retlw	0
	retlw	0
	retlw	056h
	retlw	036h
	retlw	0
	retlw	0
	retlw	0
	retlw	08h
	retlw	014h
	retlw	022h
	retlw	041h
	retlw	014h
	retlw	014h
	retlw	014h
	retlw	014h
	retlw	014h
	retlw	041h
	retlw	022h
	retlw	014h
	retlw	08h
	retlw	0
	retlw	02h
	retlw	01h
	retlw	051h
	retlw	09h
	retlw	06h
	retlw	032h
	retlw	049h
	retlw	079h
	retlw	041h
	retlw	03Eh
	retlw	07Eh
	retlw	011h
	retlw	011h
	retlw	011h
	retlw	07Eh
	retlw	07Fh
	retlw	049h
	retlw	049h
	retlw	049h
	retlw	036h
	retlw	03Eh
	retlw	041h
	retlw	041h
	retlw	041h
	retlw	022h
	retlw	07Fh
	retlw	041h
	retlw	041h
	retlw	022h
	retlw	01Ch
	retlw	07Fh
	retlw	049h
	retlw	049h
	retlw	049h
	retlw	041h
	retlw	07Fh
	retlw	09h
	retlw	09h
	retlw	01h
	retlw	01h
	retlw	03Eh
	retlw	041h
	retlw	041h
	retlw	051h
	retlw	032h
	retlw	07Fh
	retlw	08h
	retlw	08h
	retlw	08h
	retlw	07Fh
	retlw	0
	retlw	041h
	retlw	07Fh
	retlw	041h
	retlw	0
	retlw	020h
	retlw	040h
	retlw	041h
	retlw	03Fh
	retlw	01h
	retlw	07Fh
	retlw	08h
	retlw	014h
	retlw	022h
	retlw	041h
	retlw	07Fh
	retlw	040h
	retlw	040h
	retlw	040h
	retlw	040h
	retlw	07Fh
	retlw	02h
	retlw	04h
	retlw	02h
	retlw	07Fh
	retlw	07Fh
	retlw	04h
	retlw	08h
	retlw	010h
	retlw	07Fh
	retlw	03Eh
	retlw	041h
	retlw	041h
	retlw	041h
	retlw	03Eh
	retlw	07Fh
	retlw	09h
	retlw	09h
	retlw	09h
	retlw	06h
	retlw	03Eh
	retlw	041h
	retlw	051h
	retlw	021h
	retlw	05Eh
	retlw	07Fh
	retlw	09h
	retlw	019h
	retlw	029h
	retlw	046h
	retlw	046h
	retlw	049h
	retlw	049h
	retlw	049h
	retlw	031h
	retlw	01h
	retlw	01h
	retlw	07Fh
	retlw	01h
	retlw	01h
	retlw	03Fh
	retlw	040h
	retlw	040h
	retlw	040h
	retlw	03Fh
	retlw	01Fh
	retlw	020h
	retlw	040h
	retlw	020h
	retlw	01Fh
	retlw	07Fh
	retlw	020h
	retlw	018h
	retlw	020h
	retlw	07Fh
	retlw	063h
	retlw	014h
	retlw	08h
	retlw	014h
	retlw	063h
	retlw	03h
	retlw	04h
	retlw	078h
	retlw	04h
	retlw	03h
	retlw	061h
	retlw	051h
	retlw	049h
	retlw	045h
	retlw	043h
	retlw	0
	retlw	0
	retlw	07Fh
	retlw	041h
	retlw	041h
	retlw	02h
	retlw	04h
	retlw	08h
	retlw	010h
	retlw	020h
	retlw	041h
	retlw	041h
	retlw	07Fh
	retlw	0
	retlw	0
	retlw	04h
	retlw	02h
	retlw	01h
	retlw	02h
	retlw	04h
	retlw	040h
	retlw	040h
	retlw	040h
	retlw	040h
	retlw	040h
	retlw	0
	retlw	01h
	retlw	02h
	retlw	04h
	retlw	0
	retlw	020h
	retlw	054h
	retlw	054h
	retlw	054h
	retlw	078h
	retlw	07Fh
	retlw	048h
	retlw	044h
	retlw	044h
	retlw	038h
	retlw	038h
	retlw	044h
	retlw	044h
	retlw	044h
	retlw	020h
	retlw	038h
	retlw	044h
	retlw	044h
	retlw	048h
	retlw	07Fh
	retlw	038h
	retlw	054h
	retlw	054h
	retlw	054h
	retlw	018h
	retlw	08h
	retlw	07Eh
	retlw	09h
	retlw	01h
	retlw	02h
	retlw	08h
	retlw	054h
	retlw	054h
	retlw	054h
	retlw	03Ch
	retlw	07Fh
	retlw	08h
	retlw	04h
	retlw	04h
	retlw	078h
	retlw	0
	retlw	044h
	retlw	07Dh
	retlw	040h
	retlw	0
	retlw	020h
	retlw	040h
	retlw	044h
	retlw	03Dh
	retlw	0
	retlw	0
	retlw	07Fh
	retlw	010h
	retlw	028h
	retlw	044h
	retlw	0
	retlw	041h
	retlw	07Fh
	retlw	040h
	retlw	0
	retlw	07Ch
	retlw	04h
	retlw	018h
	retlw	04h
	retlw	078h
	retlw	07Ch
	retlw	08h
	retlw	04h
	retlw	04h
	retlw	078h
	retlw	038h
	retlw	044h
	retlw	044h
	retlw	044h
	retlw	038h
	retlw	07Ch
	retlw	014h
	retlw	014h
	retlw	014h
	retlw	08h
	retlw	08h
	retlw	014h
	retlw	014h
	retlw	018h
	retlw	07Ch
	retlw	07Ch
	retlw	08h
	retlw	04h
	retlw	04h
	retlw	08h
	retlw	048h
	retlw	054h
	retlw	054h
	retlw	054h
	retlw	020h
	retlw	04h
	retlw	03Fh
	retlw	044h
	retlw	040h
	retlw	020h
	retlw	03Ch
	retlw	040h
	retlw	040h
	retlw	020h
	retlw	07Ch
	retlw	01Ch
	retlw	020h
	retlw	040h
	retlw	020h
	retlw	01Ch
	retlw	03Ch
	retlw	040h
	retlw	030h
	retlw	040h
	retlw	03Ch
	retlw	044h
	retlw	028h
	retlw	010h
	retlw	028h
	retlw	044h
	retlw	0Ch
	retlw	050h
	retlw	050h
	retlw	050h
	retlw	03Ch
	retlw	044h
	retlw	064h
	retlw	054h
	retlw	04Ch
	retlw	044h
	retlw	0
	retlw	03Ch
	retlw	0E7h
	retlw	081h
	retlw	0
	retlw	0
	retlw	0
	retlw	07Eh
	retlw	07Eh
	retlw	0
	retlw	0
	retlw	081h
	retlw	0E7h
	retlw	03Ch
	retlw	0
	retlw	010h
	retlw	08h
	retlw	010h
	retlw	020h
	retlw	010h
	global	_key
	global	_Ext_key
	global	_Shift_key
	global	_Arial_Rounded_MT_Bold20x16
	global	_font_5X7
	global	_kbd_queue
	global	_char_cntrl
	global	ISR@delay
	global	ISR@i
	global	_NoOfBytes
	global	_bitVars
	global	_bit_count
	global	_inptr
	global	_kbd_byte
	global	_outptr
	global	_right_side
	global	_display_str
	global	_dispRam1
	global	_dispRam2
	global	_PORTC
_PORTC	set	7
	global	_PORTD
_PORTD	set	8
	global	_T1CON
_T1CON	set	16
	global	_TMR0
_TMR0	set	1
	global	_TMR1H
_TMR1H	set	15
	global	_TMR1L
_TMR1L	set	14
	global	_CARRY
_CARRY	set	24
	global	_GIE
_GIE	set	95
	global	_INTE
_INTE	set	92
	global	_INTF
_INTF	set	89
	global	_PEIE
_PEIE	set	94
	global	_RB0
_RB0	set	48
	global	_RB1
_RB1	set	49
	global	_RC0
_RC0	set	56
	global	_RC1
_RC1	set	57
	global	_RC2
_RC2	set	58
	global	_RC3
_RC3	set	59
	global	_RD0
_RD0	set	64
	global	_RD1
_RD1	set	65
	global	_RD2
_RD2	set	66
	global	_RD3
_RD3	set	67
	global	_RD4
_RD4	set	68
	global	_RD5
_RD5	set	69
	global	_RD6
_RD6	set	70
	global	_RD7
_RD7	set	71
	global	_TMR0IE
_TMR0IE	set	93
	global	_TMR0IF
_TMR0IF	set	90
	global	_TMR1IF
_TMR1IF	set	96
	global	_TMR1ON
_TMR1ON	set	128
	global	_OPTION_REG
_OPTION_REG	set	129
	global	_TRISB
_TRISB	set	134
	global	_TRISC
_TRISC	set	135
	global	_TRISD
_TRISD	set	136
	global	_INTEDG
_INTEDG	set	1038
	global	_TMR1IE
_TMR1IE	set	1120
	global	_EEADR
_EEADR	set	269
	global	_EEDATA
_EEDATA	set	268
	global	_ANSELH
_ANSELH	set	393
	global	_EECON1
_EECON1	set	396
	global	_EECON2
_EECON2	set	397
	global	_EEPGD
_EEPGD	set	3175
	global	_RD
_RD	set	3168
	global	_WR
_WR	set	3169
	global	_WREN
_WREN	set	3170
	
STR_8:	
	retlw	32	;' '
	retlw	32	;' '
	retlw	32	;' '
	retlw	32	;' '
	retlw	32	;' '
	retlw	32	;' '
	retlw	32	;' '
	retlw	32	;' '
	retlw	69	;'E'
	retlw	78	;'N'
	retlw	84	;'T'
	retlw	69	;'E'
	retlw	82	;'R'
	retlw	32	;' '
	retlw	83	;'S'
	retlw	79	;'O'
	retlw	77	;'M'
	retlw	69	;'E'
	retlw	32	;' '
	retlw	84	;'T'
	retlw	69	;'E'
	retlw	88	;'X'
	retlw	84	;'T'
	retlw	32	;' '
	retlw	32	;' '
	retlw	32	;' '
	retlw	32	;' '
	retlw	32	;' '
	retlw	32	;' '
	retlw	32	;' '
	retlw	32	;' '
	retlw	0
psect	stringtext
	
STR_7:	
	retlw	32	;' '
	retlw	32	;' '
	retlw	32	;' '
	retlw	32	;' '
	retlw	32	;' '
	retlw	86	;'V'
	retlw	73	;'I'
	retlw	80	;'P'
	retlw	69	;'E'
	retlw	82	;'R'
	retlw	84	;'T'
	retlw	82	;'R'
	retlw	79	;'O'
	retlw	78	;'N'
	retlw	73	;'I'
	retlw	67	;'C'
	retlw	83	;'S'
	retlw	32	;' '
	retlw	32	;' '
	retlw	32	;' '
	retlw	32	;' '
	retlw	32	;' '
	retlw	0
psect	stringtext
	
STR_2:	
	retlw	84	;'T'
	retlw	89	;'Y'
	retlw	80	;'P'
	retlw	69	;'E'
	retlw	32	;' '
	retlw	78	;'N'
	retlw	79	;'O'
	retlw	87	;'W'
	retlw	46	;'.'
	retlw	0
psect	stringtext
	
STR_1:	
	retlw	87	;'W'
	retlw	65	;'A'
	retlw	73	;'I'
	retlw	84	;'T'
	retlw	46	;'.'
	retlw	46	;'.'
	retlw	46	;'.'
	retlw	0
psect	stringtext
STR_3	equ	STR_2+0
STR_4	equ	STR_1+0
STR_5	equ	STR_8+23
STR_6	equ	STR_8+23
	file	"project.as"
	line	#
psect cinit,class=CODE,delta=2
global start_initialization
start_initialization:

psect	bssBANK0,class=BANK0,space=1
global __pbssBANK0
__pbssBANK0:
_kbd_queue:
       ds      5

_char_cntrl:
       ds      2

ISR@delay:
       ds      1

ISR@i:
       ds      1

_NoOfBytes:
       ds      1

_bitVars:
       ds      1

_bit_count:
       ds      1

_inptr:
       ds      1

_kbd_byte:
       ds      1

_outptr:
       ds      1

psect	bssBANK1,class=BANK1,space=1
global __pbssBANK1
__pbssBANK1:
_dispRam2:
       ds      64

psect	bssBANK3,class=BANK3,space=1
global __pbssBANK3
__pbssBANK3:
_dispRam1:
       ds      64

psect	bssBANK2,class=BANK2,space=1
global __pbssBANK2
__pbssBANK2:
_right_side:
       ds      40

_display_str:
       ds      40

psect clrtext,class=CODE,delta=2
global clear_ram
;	Called with FSR containing the base address, and
;	W with the last address+1
clear_ram:
	clrwdt			;clear the watchdog before getting into this loop
clrloop:
	clrf	indf		;clear RAM location pointed to by FSR
	incf	fsr,f		;increment pointer
	xorwf	fsr,w		;XOR with final address
	btfsc	status,2	;have we reached the end yet?
	retlw	0		;all done for this memory range, return
	xorwf	fsr,w		;XOR again to restore value
	goto	clrloop		;do the next byte

; Clear objects allocated to BANK0
psect cinit,class=CODE,delta=2
	bcf	status, 7	;select IRP bank0
	movlw	low(__pbssBANK0)
	movwf	fsr
	movlw	low((__pbssBANK0)+0Fh)
	fcall	clear_ram
; Clear objects allocated to BANK1
psect cinit,class=CODE,delta=2
	movlw	low(__pbssBANK1)
	movwf	fsr
	movlw	low((__pbssBANK1)+040h)
	fcall	clear_ram
; Clear objects allocated to BANK3
psect cinit,class=CODE,delta=2
	bsf	status, 7	;select IRP bank2
	movlw	low(__pbssBANK3)
	movwf	fsr
	movlw	low((__pbssBANK3)+040h)
	fcall	clear_ram
; Clear objects allocated to BANK2
psect cinit,class=CODE,delta=2
	movlw	low(__pbssBANK2)
	movwf	fsr
	movlw	low((__pbssBANK2)+050h)
	fcall	clear_ram
psect cinit,class=CODE,delta=2
global end_of_initialization

;End of C runtime variable initialization code

end_of_initialization:
clrf status
ljmp _main	;jump to C main() function
psect	cstackCOMMON,class=COMMON,space=1
global __pcstackCOMMON
__pcstackCOMMON:
	global	?_fill_kbd_buff
?_fill_kbd_buff:	; 0 bytes @ 0x0
	global	??_fill_kbd_buff
??_fill_kbd_buff:	; 0 bytes @ 0x0
	global	?_clr_disp
?_clr_disp:	; 0 bytes @ 0x0
	global	?_refresh_display
?_refresh_display:	; 0 bytes @ 0x0
	global	?_select_scrll_speed
?_select_scrll_speed:	; 0 bytes @ 0x0
	global	?_screenShift
?_screenShift:	; 0 bytes @ 0x0
	global	??_screenShift
??_screenShift:	; 0 bytes @ 0x0
	global	?_charUpdate
?_charUpdate:	; 0 bytes @ 0x0
	global	?_decode_key
?_decode_key:	; 0 bytes @ 0x0
	global	?_kbd
?_kbd:	; 0 bytes @ 0x0
	global	?_put_cursor
?_put_cursor:	; 0 bytes @ 0x0
	global	?_keybrdInput
?_keybrdInput:	; 0 bytes @ 0x0
	global	?_ISR
?_ISR:	; 0 bytes @ 0x0
	global	?_main
?_main:	; 0 bytes @ 0x0
	global	?i1_putRowData
?i1_putRowData:	; 0 bytes @ 0x0
	global	?i1_refresh_display
?i1_refresh_display:	; 0 bytes @ 0x0
	global	?i1_charUpdate
?i1_charUpdate:	; 0 bytes @ 0x0
	global	?_eeprom_read
?_eeprom_read:	; 1 bytes @ 0x0
	global	?_getKey
?_getKey:	; 1 bytes @ 0x0
	global	?_get_Arial_Rounded_MT_Bold15x16
?_get_Arial_Rounded_MT_Bold15x16:	; 2 bytes @ 0x0
	global	?_get_font_5X7
?_get_font_5X7:	; 2 bytes @ 0x0
	global	?i1_get_Arial_Rounded_MT_Bold15x16
?i1_get_Arial_Rounded_MT_Bold15x16:	; 2 bytes @ 0x0
	global	?i1___wmul
?i1___wmul:	; 2 bytes @ 0x0
	global	fill_kbd_buff@data
fill_kbd_buff@data:	; 1 bytes @ 0x0
	global	i1putRowData@data1
i1putRowData@data1:	; 2 bytes @ 0x0
	global	i1___wmul@multiplier
i1___wmul@multiplier:	; 2 bytes @ 0x0
	ds	1
	global	??_decode_key
??_decode_key:	; 0 bytes @ 0x1
	global	decode_key@data
decode_key@data:	; 1 bytes @ 0x1
	ds	1
	global	decode_key@i
decode_key@i:	; 1 bytes @ 0x2
	global	screenShift@temp
screenShift@temp:	; 2 bytes @ 0x2
	global	i1putRowData@data2
i1putRowData@data2:	; 2 bytes @ 0x2
	global	i1___wmul@multiplicand
i1___wmul@multiplicand:	; 2 bytes @ 0x2
	ds	1
	global	??_kbd
??_kbd:	; 0 bytes @ 0x3
	ds	1
	global	??i1_putRowData
??i1_putRowData:	; 0 bytes @ 0x4
	global	??i1___wmul
??i1___wmul:	; 0 bytes @ 0x4
	global	screenShift@i
screenShift@i:	; 1 bytes @ 0x4
	global	i1putRowData@i
i1putRowData@i:	; 1 bytes @ 0x4
	global	i1___wmul@product
i1___wmul@product:	; 2 bytes @ 0x4
	ds	1
	global	??i1_refresh_display
??i1_refresh_display:	; 0 bytes @ 0x5
	ds	1
	global	??i1_get_Arial_Rounded_MT_Bold15x16
??i1_get_Arial_Rounded_MT_Bold15x16:	; 0 bytes @ 0x6
	ds	1
	global	i1refresh_display@i
i1refresh_display@i:	; 1 bytes @ 0x7
	ds	3
	global	i1get_Arial_Rounded_MT_Bold15x16@byte
i1get_Arial_Rounded_MT_Bold15x16@byte:	; 1 bytes @ 0xA
	ds	1
	global	i1get_Arial_Rounded_MT_Bold15x16@pos
i1get_Arial_Rounded_MT_Bold15x16@pos:	; 2 bytes @ 0xB
	ds	2
psect	cstackBANK0,class=BANK0,space=1
global __pcstackBANK0
__pcstackBANK0:
	global	??i1_charUpdate
??i1_charUpdate:	; 0 bytes @ 0x0
	ds	2
	global	i1charUpdate@size
i1charUpdate@size:	; 1 bytes @ 0x2
	ds	1
	global	i1charUpdate@j
i1charUpdate@j:	; 1 bytes @ 0x3
	ds	1
	global	i1charUpdate@i
i1charUpdate@i:	; 1 bytes @ 0x4
	ds	1
	global	i1charUpdate@ptr
i1charUpdate@ptr:	; 2 bytes @ 0x5
	ds	2
	global	i1charUpdate@charac
i1charUpdate@charac:	; 1 bytes @ 0x7
	ds	1
	global	i1charUpdate@temp
i1charUpdate@temp:	; 2 bytes @ 0x8
	ds	2
	global	i1charUpdate@col
i1charUpdate@col:	; 1 bytes @ 0xA
	ds	1
	global	??_ISR
??_ISR:	; 0 bytes @ 0xB
	ds	4
	global	?_fillRAM
?_fillRAM:	; 0 bytes @ 0xF
	global	?__memset
?__memset:	; 0 bytes @ 0xF
	global	??_select_scrll_speed
??_select_scrll_speed:	; 0 bytes @ 0xF
	global	?_Back
?_Back:	; 0 bytes @ 0xF
	global	??_eeprom_read
??_eeprom_read:	; 0 bytes @ 0xF
	global	??_getKey
??_getKey:	; 0 bytes @ 0xF
	global	?_putRowData
?_putRowData:	; 0 bytes @ 0xF
	global	?_eeprom_write
?_eeprom_write:	; 1 bytes @ 0xF
	global	?__memcpy
?__memcpy:	; 1 bytes @ 0xF
	global	?___bmul
?___bmul:	; 1 bytes @ 0xF
	global	?___wmul
?___wmul:	; 2 bytes @ 0xF
	global	getKey@data
getKey@data:	; 1 bytes @ 0xF
	global	Back@cur_loc
Back@cur_loc:	; 1 bytes @ 0xF
	global	eeprom_read@addr
eeprom_read@addr:	; 1 bytes @ 0xF
	global	eeprom_write@value
eeprom_write@value:	; 1 bytes @ 0xF
	global	___bmul@multiplicand
___bmul@multiplicand:	; 1 bytes @ 0xF
	global	putRowData@data1
putRowData@data1:	; 2 bytes @ 0xF
	global	fillRAM@data
fillRAM@data:	; 2 bytes @ 0xF
	global	__memcpy@str2
__memcpy@str2:	; 2 bytes @ 0xF
	global	__memset@str
__memset@str:	; 2 bytes @ 0xF
	global	___wmul@multiplier
___wmul@multiplier:	; 2 bytes @ 0xF
	ds	1
	global	??_eeprom_write
??_eeprom_write:	; 0 bytes @ 0x10
	global	?_eeprom_str_read
?_eeprom_str_read:	; 0 bytes @ 0x10
	global	??___bmul
??___bmul:	; 0 bytes @ 0x10
	global	Back@Buffsize
Back@Buffsize:	; 1 bytes @ 0x10
	global	eeprom_str_read@address
eeprom_str_read@address:	; 1 bytes @ 0x10
	global	eeprom_write@addr
eeprom_write@addr:	; 1 bytes @ 0x10
	global	___bmul@product
___bmul@product:	; 1 bytes @ 0x10
	ds	1
	global	??_fillRAM
??_fillRAM:	; 0 bytes @ 0x11
	global	??_Back
??_Back:	; 0 bytes @ 0x11
	global	?_eeprom_str_write
?_eeprom_str_write:	; 0 bytes @ 0x11
	global	fillRAM@col
fillRAM@col:	; 1 bytes @ 0x11
	global	__memset@c
__memset@c:	; 1 bytes @ 0x11
	global	eeprom_str_read@length
eeprom_str_read@length:	; 1 bytes @ 0x11
	global	___bmul@multiplier
___bmul@multiplier:	; 1 bytes @ 0x11
	global	putRowData@data2
putRowData@data2:	; 2 bytes @ 0x11
	global	__memcpy@n
__memcpy@n:	; 2 bytes @ 0x11
	global	eeprom_str_write@ptr
eeprom_str_write@ptr:	; 2 bytes @ 0x11
	global	___wmul@multiplicand
___wmul@multiplicand:	; 2 bytes @ 0x11
	ds	1
	global	??_eeprom_str_read
??_eeprom_str_read:	; 0 bytes @ 0x12
	global	??_put_cursor
??_put_cursor:	; 0 bytes @ 0x12
	global	put_cursor@font_data
put_cursor@font_data:	; 2 bytes @ 0x12
	global	__memset@n
__memset@n:	; 2 bytes @ 0x12
	ds	1
	global	??__memcpy
??__memcpy:	; 0 bytes @ 0x13
	global	??_putRowData
??_putRowData:	; 0 bytes @ 0x13
	global	??___wmul
??___wmul:	; 0 bytes @ 0x13
	global	putRowData@i
putRowData@i:	; 1 bytes @ 0x13
	global	eeprom_str_write@address
eeprom_str_write@address:	; 1 bytes @ 0x13
	global	eeprom_str_read@ptr
eeprom_str_read@ptr:	; 1 bytes @ 0x13
	global	___wmul@product
___wmul@product:	; 2 bytes @ 0x13
	ds	1
	global	??_refresh_display
??_refresh_display:	; 0 bytes @ 0x14
	global	??__memset
??__memset:	; 0 bytes @ 0x14
	global	put_cursor@i
put_cursor@i:	; 1 bytes @ 0x14
	global	Back@ptr
Back@ptr:	; 1 bytes @ 0x14
	global	eeprom_str_write@length
eeprom_str_write@length:	; 1 bytes @ 0x14
	global	eeprom_str_read@i
eeprom_str_read@i:	; 1 bytes @ 0x14
	ds	1
	global	??_clr_disp
??_clr_disp:	; 0 bytes @ 0x15
	global	??_eeprom_str_write
??_eeprom_str_write:	; 0 bytes @ 0x15
	global	??_get_Arial_Rounded_MT_Bold15x16
??_get_Arial_Rounded_MT_Bold15x16:	; 0 bytes @ 0x15
	global	??_get_font_5X7
??_get_font_5X7:	; 0 bytes @ 0x15
	global	put_cursor@loc
put_cursor@loc:	; 1 bytes @ 0x15
	global	__memcpy@str1
__memcpy@str1:	; 1 bytes @ 0x15
	global	eeprom_str_write@i
eeprom_str_write@i:	; 1 bytes @ 0x15
	ds	1
	global	refresh_display@i
refresh_display@i:	; 1 bytes @ 0x16
	ds	3
	global	get_font_5X7@byte
get_font_5X7@byte:	; 1 bytes @ 0x19
	global	get_Arial_Rounded_MT_Bold15x16@byte
get_Arial_Rounded_MT_Bold15x16@byte:	; 1 bytes @ 0x19
	ds	1
	global	get_font_5X7@pos
get_font_5X7@pos:	; 2 bytes @ 0x1A
	global	get_Arial_Rounded_MT_Bold15x16@pos
get_Arial_Rounded_MT_Bold15x16@pos:	; 2 bytes @ 0x1A
	ds	2
	global	?_small_font_disp
?_small_font_disp:	; 0 bytes @ 0x1C
	global	??_charUpdate
??_charUpdate:	; 0 bytes @ 0x1C
	global	small_font_disp@ptr
small_font_disp@ptr:	; 2 bytes @ 0x1C
	ds	2
	global	charUpdate@size
charUpdate@size:	; 1 bytes @ 0x1E
	global	small_font_disp@length
small_font_disp@length:	; 1 bytes @ 0x1E
	ds	1
	global	charUpdate@j
charUpdate@j:	; 1 bytes @ 0x1F
	global	small_font_disp@line_no
small_font_disp@line_no:	; 1 bytes @ 0x1F
	ds	1
	global	??_small_font_disp
??_small_font_disp:	; 0 bytes @ 0x20
	global	charUpdate@i
charUpdate@i:	; 1 bytes @ 0x20
	global	small_font_disp@data_ptr
small_font_disp@data_ptr:	; 2 bytes @ 0x20
	ds	1
	global	charUpdate@ptr
charUpdate@ptr:	; 2 bytes @ 0x21
	ds	1
	global	small_font_disp@font_data
small_font_disp@font_data:	; 2 bytes @ 0x22
	ds	1
	global	charUpdate@charac
charUpdate@charac:	; 1 bytes @ 0x23
	ds	1
	global	small_font_disp@count
small_font_disp@count:	; 1 bytes @ 0x24
	global	charUpdate@temp
charUpdate@temp:	; 2 bytes @ 0x24
	ds	1
	global	small_font_disp@i
small_font_disp@i:	; 1 bytes @ 0x25
	ds	1
	global	??_keybrdInput
??_keybrdInput:	; 0 bytes @ 0x26
	global	charUpdate@col
charUpdate@col:	; 1 bytes @ 0x26
	ds	2
	global	keybrdInput@max_len
keybrdInput@max_len:	; 1 bytes @ 0x28
	ds	1
	global	keybrdInput@min_i
keybrdInput@min_i:	; 1 bytes @ 0x29
	ds	1
	global	keybrdInput@wait
keybrdInput@wait:	; 1 bytes @ 0x2A
	ds	1
	global	keybrdInput@totalChar
keybrdInput@totalChar:	; 1 bytes @ 0x2B
	ds	1
	global	keybrdInput@max_i
keybrdInput@max_i:	; 1 bytes @ 0x2C
	ds	1
	global	keybrdInput@key
keybrdInput@key:	; 1 bytes @ 0x2D
	ds	1
	global	keybrdInput@display_str
keybrdInput@display_str:	; 1 bytes @ 0x2E
	ds	1
	global	keybrdInput@offset_i
keybrdInput@offset_i:	; 1 bytes @ 0x2F
	ds	1
	global	keybrdInput@cursor_i
keybrdInput@cursor_i:	; 1 bytes @ 0x30
	ds	1
	global	??_main
??_main:	; 0 bytes @ 0x31
;;Data sizes: Strings 73, constant 4464, data 0, bss 223, persistent 0 stack 0
;;Auto spaces:   Size  Autos    Used
;; COMMON          13     13      13
;; BANK0           80     49      64
;; BANK1           80      0      64
;; BANK3           85      0      64
;; BANK2           96      0      80

;;
;; Pointer list with targets:

;; ?i1_get_Arial_Rounded_MT_Bold15x16	PTR unsigned char  size(2) Largest target is 3705
;;		 -> Arial_Rounded_MT_Bold20x16(CODE[3705]), 
;;
;; ?i1___wmul	unsigned int  size(1) Largest target is 0
;;
;; sp_i1_get_Arial_Rounded_MT_Bold15x16	PTR unsigned char  size(2) Largest target is 3705
;;		 -> Arial_Rounded_MT_Bold20x16(CODE[3705]), 
;;
;; ?_get_Arial_Rounded_MT_Bold15x16	PTR unsigned char  size(2) Largest target is 3705
;;		 -> Arial_Rounded_MT_Bold20x16(CODE[3705]), 
;;
;; ?_get_font_5X7	PTR unsigned char  size(2) Largest target is 475
;;		 -> font_5X7(CODE[475]), 
;;
;; ?___wmul	unsigned int  size(1) Largest target is 0
;;
;; ?__memcpy	PTR void  size(1) Largest target is 40
;;		 -> display_str(BANK2[40]), 
;;
;; eeprom_str_read@ptr	PTR unsigned char  size(1) Largest target is 1
;;		 -> keybrdInput@display_str(BANK0[1]), 
;;
;; eeprom_str_write@ptr	PTR unsigned char  size(2) Largest target is 32
;;		 -> STR_8(CODE[32]), STR_6(CODE[9]), STR_5(CODE[9]), keybrdInput@display_str(BANK0[1]), 
;;
;; _memset@str	PTR unsigned char  size(2) Largest target is 64
;;		 -> dispRam2(BANK1[64]), dispRam1(BANK3[64]), display_str(BANK2[40]), keybrdInput@display_str(BANK0[1]), 
;;
;; _memcpy@str2	PTR const unsigned char  size(2) Largest target is 23
;;		 -> STR_7(CODE[23]), 
;;
;; _memcpy@str1	PTR unsigned char  size(1) Largest target is 40
;;		 -> display_str(BANK2[40]), 
;;
;; _memcpy@temp_ptr	PTR unsigned char  size(1) Largest target is 40
;;		 -> display_str(BANK2[40]), 
;;
;; sp__get_font_5X7	PTR unsigned char  size(2) Largest target is 475
;;		 -> font_5X7(CODE[475]), 
;;
;; small_font_disp@ptr	PTR unsigned char  size(2) Largest target is 10
;;		 -> STR_4(CODE[8]), STR_3(CODE[10]), keybrdInput@display_str(BANK0[1]), STR_2(CODE[10]), 
;;		 -> STR_1(CODE[8]), 
;;
;; small_font_disp@data_ptr	PTR unsigned char  size(2) Largest target is 475
;;		 -> font_5X7(CODE[475]), 
;;
;; charUpdate@ptr	PTR unsigned char  size(2) Largest target is 3705
;;		 -> Arial_Rounded_MT_Bold20x16(CODE[3705]), 
;;
;; sp__get_Arial_Rounded_MT_Bold15x16	PTR unsigned char  size(2) Largest target is 3705
;;		 -> Arial_Rounded_MT_Bold20x16(CODE[3705]), 
;;
;; sp___memcpy	PTR void  size(1) Largest target is 40
;;		 -> display_str(BANK2[40]), 
;;
;; Back@ptr	PTR unsigned char  size(1) Largest target is 1
;;		 -> keybrdInput@display_str(BANK0[1]), 
;;


;;
;; Critical Paths under _main in COMMON
;;
;;   None.
;;
;; Critical Paths under _ISR in COMMON
;;
;;   i1_charUpdate->i1_get_Arial_Rounded_MT_Bold15x16
;;   _kbd->_decode_key
;;   i1_get_Arial_Rounded_MT_Bold15x16->i1___wmul
;;   i1_refresh_display->i1_putRowData
;;   _decode_key->_fill_kbd_buff
;;
;; Critical Paths under _main in BANK0
;;
;;   _main->_keybrdInput
;;   _keybrdInput->_small_font_disp
;;   _charUpdate->_get_Arial_Rounded_MT_Bold15x16
;;   _small_font_disp->_get_font_5X7
;;   _get_font_5X7->___wmul
;;   _get_Arial_Rounded_MT_Bold15x16->___wmul
;;   _eeprom_str_write->_eeprom_write
;;   _eeprom_str_read->_eeprom_read
;;   _refresh_display->_putRowData
;;   _clr_disp->__memset
;;   _put_cursor->___bmul
;;   _put_cursor->_fillRAM
;;
;; Critical Paths under _ISR in BANK0
;;
;;   _ISR->i1_charUpdate
;;
;; Critical Paths under _main in BANK1
;;
;;   None.
;;
;; Critical Paths under _ISR in BANK1
;;
;;   None.
;;
;; Critical Paths under _main in BANK3
;;
;;   None.
;;
;; Critical Paths under _ISR in BANK3
;;
;;   None.
;;
;; Critical Paths under _main in BANK2
;;
;;   None.
;;
;; Critical Paths under _ISR in BANK2
;;
;;   None.

;;
;;Main: autosize = 0, tempsize = 0, incstack = 0, save=0
;;

;;
;;Call Graph Tables:
;;
;; ---------------------------------------------------------------------------------
;; (Depth) Function   	        Calls       Base Space   Used Autos Params    Refs
;; ---------------------------------------------------------------------------------
;; (0) _main                                                 0     0      0    5123
;;                            __memset
;;                       _eeprom_write
;;                            __memcpy
;;                        _eeprom_read
;;                   _eeprom_str_write
;;                           _clr_disp
;;                         _charUpdate
;;                        _keybrdInput
;; ---------------------------------------------------------------------------------
;; (1) _keybrdInput                                         11    11      0    3697
;;                                             38 BANK0     11    11      0
;;                           _clr_disp
;;                    _small_font_disp
;;                    _refresh_display
;;                         _put_cursor
;;                            __memset
;;                             _getKey
;;                 _select_scrll_speed
;;                               _Back
;;                       _eeprom_write
;;                    _eeprom_str_read
;;                   _eeprom_str_write
;; ---------------------------------------------------------------------------------
;; (1) _charUpdate                                          11    11      0     937
;;                                             28 BANK0     11    11      0
;;     _get_Arial_Rounded_MT_Bold15x16
;; ---------------------------------------------------------------------------------
;; (2) _small_font_disp                                     10     6      4     766
;;                                             28 BANK0     10     6      4
;;                       _get_font_5X7
;;                            _fillRAM
;; ---------------------------------------------------------------------------------
;; (3) _get_font_5X7                                         7     7      0     238
;;                                             21 BANK0      7     7      0
;;                             ___wmul
;; ---------------------------------------------------------------------------------
;; (2) _get_Arial_Rounded_MT_Bold15x16                       7     7      0     238
;;                                             21 BANK0      7     7      0
;;                             ___wmul
;; ---------------------------------------------------------------------------------
;; (2) _eeprom_str_write                                     5     1      4     184
;;                                             17 BANK0      5     1      4
;;                       _eeprom_write
;; ---------------------------------------------------------------------------------
;; (2) _eeprom_str_read                                      5     3      2     156
;;                                             16 BANK0      5     3      2
;;                        _eeprom_read
;; ---------------------------------------------------------------------------------
;; (2) _refresh_display                                      3     3      0     206
;;                                             20 BANK0      3     3      0
;;                         _putRowData
;; ---------------------------------------------------------------------------------
;; (2) _clr_disp                                             0     0      0      68
;;                            __memset
;; ---------------------------------------------------------------------------------
;; (2) _put_cursor                                           4     4      0     384
;;                                             18 BANK0      4     4      0
;;                             ___bmul
;;                            _fillRAM
;; ---------------------------------------------------------------------------------
;; (4) ___wmul                                               6     2      4     136
;;                                             15 BANK0      6     2      4
;; ---------------------------------------------------------------------------------
;; (3) ___bmul                                               3     2      1      92
;;                                             15 BANK0      3     2      1
;; ---------------------------------------------------------------------------------
;; (3) _putRowData                                           5     1      4      93
;;                                             15 BANK0      5     1      4
;; ---------------------------------------------------------------------------------
;; (3) _eeprom_read                                          1     1      0      22
;;                                             15 BANK0      1     1      0
;; ---------------------------------------------------------------------------------
;; (1) __memcpy                                              7     3      4      97
;;                                             15 BANK0      7     3      4
;; ---------------------------------------------------------------------------------
;; (3) _eeprom_write                                         2     1      1      50
;;                                             15 BANK0      2     1      1
;; ---------------------------------------------------------------------------------
;; (2) _Back                                                 6     4      2     177
;;                                             15 BANK0      6     4      2
;; ---------------------------------------------------------------------------------
;; (2) _select_scrll_speed                                   3     3      0       0
;; ---------------------------------------------------------------------------------
;; (2) __memset                                              6     1      5      68
;;                                             15 BANK0      6     1      5
;; ---------------------------------------------------------------------------------
;; (3) _fillRAM                                              3     1      2     154
;;                                             15 BANK0      3     1      2
;; ---------------------------------------------------------------------------------
;; (2) _getKey                                               1     1      0      23
;;                                             15 BANK0      1     1      0
;; ---------------------------------------------------------------------------------
;; Estimated maximum stack depth 4
;; ---------------------------------------------------------------------------------
;; (Depth) Function   	        Calls       Base Space   Used Autos Params    Refs
;; ---------------------------------------------------------------------------------
;; (5) _ISR                                                  4     4      0    3434
;;                                             11 BANK0      4     4      0
;;                                _kbd
;;                  i1_refresh_display
;;                        _screenShift
;;                       i1_charUpdate
;; ---------------------------------------------------------------------------------
;; (6) i1_charUpdate                                        11    11      0    2090
;;                                              0 BANK0     11    11      0
;;   i1_get_Arial_Rounded_MT_Bold15x16
;; ---------------------------------------------------------------------------------
;; (6) _kbd                                                  1     1      0     424
;;                                              3 COMMON     1     1      0
;;                         _decode_key
;; ---------------------------------------------------------------------------------
;; (7) i1_get_Arial_Rounded_MT_Bold15x16                     7     7      0     525
;;                                              6 COMMON     7     7      0
;;                           i1___wmul
;; ---------------------------------------------------------------------------------
;; (6) i1_refresh_display                                    3     3      0     673
;;                                              5 COMMON     3     3      0
;;                       i1_putRowData
;; ---------------------------------------------------------------------------------
;; (7) _decode_key                                           2     2      0     424
;;                                              1 COMMON     2     2      0
;;                      _fill_kbd_buff
;; ---------------------------------------------------------------------------------
;; (8) i1___wmul                                             6     2      4     300
;;                                              0 COMMON     6     2      4
;; ---------------------------------------------------------------------------------
;; (7) i1_putRowData                                         5     1      4     302
;;                                              0 COMMON     5     1      4
;; ---------------------------------------------------------------------------------
;; (6) _screenShift                                          5     5      0     247
;;                                              0 COMMON     5     5      0
;; ---------------------------------------------------------------------------------
;; (8) _fill_kbd_buff                                        1     1      0      67
;;                                              0 COMMON     1     1      0
;; ---------------------------------------------------------------------------------
;; Estimated maximum stack depth 8
;; ---------------------------------------------------------------------------------

;; Call Graph Graphs:

;; _main (ROOT)
;;   __memset
;;   _eeprom_write
;;   __memcpy
;;   _eeprom_read
;;   _eeprom_str_write
;;     _eeprom_write
;;   _clr_disp
;;     __memset
;;   _charUpdate
;;     _get_Arial_Rounded_MT_Bold15x16
;;       ___wmul
;;   _keybrdInput
;;     _clr_disp
;;       __memset
;;     _small_font_disp
;;       _get_font_5X7
;;         ___wmul
;;       _fillRAM
;;     _refresh_display
;;       _putRowData
;;     _put_cursor
;;       ___bmul
;;       _fillRAM
;;     __memset
;;     _getKey
;;     _select_scrll_speed
;;     _Back
;;     _eeprom_write
;;     _eeprom_str_read
;;       _eeprom_read
;;     _eeprom_str_write
;;       _eeprom_write
;;
;; _ISR (ROOT)
;;   _kbd
;;     _decode_key
;;       _fill_kbd_buff
;;   i1_refresh_display
;;     i1_putRowData
;;   _screenShift
;;   i1_charUpdate
;;     i1_get_Arial_Rounded_MT_Bold15x16
;;       i1___wmul
;;

;; Address spaces:

;;Name               Size   Autos  Total    Cost      Usage
;;BITCOMMON            D      0       0       0        0.0%
;;EEDATA             100      0       0       0        0.0%
;;NULL                 0      0       0       0        0.0%
;;CODE                 0      0       0       0        0.0%
;;COMMON               D      D       D       1      100.0%
;;BITSFR0              0      0       0       1        0.0%
;;SFR0                 0      0       0       1        0.0%
;;BITSFR1              0      0       0       2        0.0%
;;SFR1                 0      0       0       2        0.0%
;;STACK                0      0       C       2        0.0%
;;ABS                  0      0     11D       3        0.0%
;;BITBANK0            50      0       0       4        0.0%
;;BITSFR3              0      0       0       4        0.0%
;;SFR3                 0      0       0       4        0.0%
;;BANK0               50     31      40       5       80.0%
;;BITSFR2              0      0       0       5        0.0%
;;SFR2                 0      0       0       5        0.0%
;;BITBANK1            50      0       0       6        0.0%
;;BANK1               50      0      40       7       80.0%
;;BITBANK3            55      0       0       8        0.0%
;;BANK3               55      0      40       9       75.3%
;;BITBANK2            60      0       0      10        0.0%
;;BANK2               60      0      50      11       83.3%
;;DATA                 0      0     129      12        0.0%

	global	_main
psect	maintext,global,class=CODE,delta=2
global __pmaintext
__pmaintext:

;; *************** function _main *****************
;; Defined at:
;;		line 78 in file "C:\Users\ranjan\Desktop\matrix\main.c"
;; Parameters:    Size  Location     Type
;;		None
;; Auto vars:     Size  Location     Type
;;		None
;; Return value:  Size  Location     Type
;;		None               void
;; Registers used:
;;		wreg, fsr0l, fsr0h, status,2, status,0, btemp+1, pclath, cstack
;; Tracked objects:
;;		On entry : 17F/0
;;		On exit  : 60/0
;;		Unchanged: 0/0
;; Data sizes:     COMMON   BANK0   BANK1   BANK3   BANK2
;;      Params:         0       0       0       0       0
;;      Locals:         0       0       0       0       0
;;      Temps:          0       0       0       0       0
;;      Totals:         0       0       0       0       0
;;Total ram usage:        0 bytes
;; Hardware stack levels required when called:    8
;; This function calls:
;;		__memset
;;		_eeprom_write
;;		__memcpy
;;		_eeprom_read
;;		_eeprom_str_write
;;		_clr_disp
;;		_charUpdate
;;		_keybrdInput
;; This function is called by:
;;		Startup code after reset
;; This function uses a non-reentrant model
;;
psect	maintext
	file	"C:\Users\ranjan\Desktop\matrix\main.c"
	line	78
	global	__size_of_main
	__size_of_main	equ	__end_of_main-_main
	
_main:	
	opt	stack 0
; Regs used in _main: [wreg-fsr0h+status,2+status,0+btemp+1+pclath+cstack]
	line	79
	
l9916:	
;main.c: 79: bitVars.PS2Active=0;
	bcf	(_bitVars),5
	line	80
;main.c: 80: bitVars.CapsKey=0;
	bcf	(_bitVars),4
	line	81
;main.c: 81: RD1 = 1;
	bsf	(65/8),(65)&7
	line	82
;main.c: 82: RD7 = 0;
	bcf	(71/8),(71)&7
	line	84
	
l9918:	
;main.c: 84: ANSELH=0x00;
	bsf	status, 5	;RP0=1, select bank3
	bsf	status, 6	;RP1=1, select bank3
	clrf	(393)^0180h	;volatile
	line	85
	
l9920:	
;main.c: 85: TRISB=0xFF;
	movlw	(0FFh)
	bcf	status, 6	;RP1=0, select bank1
	movwf	(134)^080h	;volatile
	line	86
	
l9922:	
;main.c: 86: TRISC=0x00;
	clrf	(135)^080h	;volatile
	line	87
	
l9924:	
;main.c: 87: TRISD=0x00;
	clrf	(136)^080h	;volatile
	line	88
	
l9926:	
;main.c: 88: PORTD=0x00;
	bcf	status, 5	;RP0=0, select bank0
	clrf	(8)	;volatile
	line	89
	
l9928:	
;main.c: 89: PORTC=0x00;
	clrf	(7)	;volatile
	line	91
	
l9930:	
;main.c: 91: EEPGD=0;
	bsf	status, 5	;RP0=1, select bank3
	bsf	status, 6	;RP1=1, select bank3
	bcf	(3175/8)^0180h,(3175)&7
	line	92
	
l9932:	
;main.c: 92: GIE = 1;
	bsf	(95/8),(95)&7
	line	93
	
l9934:	
;main.c: 93: PEIE = 1;
	bsf	(94/8),(94)&7
	line	94
	
l9936:	
;main.c: 94: TMR0IE = 0;
	bcf	(93/8),(93)&7
	line	95
	
l9938:	
;main.c: 95: OPTION_REG = 0x04;
	movlw	(04h)
	bcf	status, 6	;RP1=0, select bank1
	movwf	(129)^080h	;volatile
	line	96
;main.c: 96: TMR0 = 0;
	bcf	status, 5	;RP0=0, select bank0
	clrf	(1)	;volatile
	line	97
	
l9940:	
;main.c: 97: TMR0IF=0;
	bcf	(90/8),(90)&7
	line	99
	
l9942:	
;main.c: 99: TMR1IE=1;
	bsf	status, 5	;RP0=1, select bank1
	bsf	(1120/8)^080h,(1120)&7
	line	100
	
l9944:	
;main.c: 100: TMR1IF=0;
	bcf	status, 5	;RP0=0, select bank0
	bcf	(96/8),(96)&7
	line	101
	
l9946:	
;main.c: 101: T1CON=0X30;
	movlw	(030h)
	movwf	(16)	;volatile
	line	102
	
l9948:	
;main.c: 102: TMR1H=0X0F;
	movlw	(0Fh)
	movwf	(15)	;volatile
	line	103
	
l9950:	
;main.c: 103: TMR1L=0XFF;
	movlw	(0FFh)
	movwf	(14)	;volatile
	line	105
	
l9952:	
;main.c: 105: INTEDG = 0;
	bsf	status, 5	;RP0=1, select bank1
	bcf	(1038/8)^080h,(1038)&7
	line	106
	
l9954:	
;main.c: 106: INTE=1;
	bsf	(92/8),(92)&7
	line	107
	
l9956:	
;main.c: 107: INTF=0;
	bcf	(89/8),(89)&7
	line	115
	
l9958:	
;main.c: 115: _memset(display_str,0,sizeof(display_str));
	movlw	(_display_str&0ffh)
	bcf	status, 5	;RP0=0, select bank0
	movwf	(?__memset)
	movlw	(0x2/2)
	movwf	(?__memset+1)
	clrf	0+(?__memset)+02h
	movlw	028h
	movwf	0+(?__memset)+03h
	clrf	1+(?__memset)+03h
	fcall	__memset
	line	116
	
l9960:	
;main.c: 116: NoOfBytes = 22;
	movlw	(016h)
	movwf	(_NoOfBytes)
	line	117
	
l9962:	
;main.c: 117: eeprom_write(101,NoOfBytes);
	movf	(_NoOfBytes),w
	movwf	(?_eeprom_write)
	movlw	(065h)
	fcall	_eeprom_write
	line	118
	
l9964:	
;main.c: 118: _memcpy(display_str, "     VIPERTRONICS     ",22);
	movlw	low(STR_7|8000h)
	bcf	status, 5	;RP0=0, select bank0
	bcf	status, 6	;RP1=0, select bank0
	movwf	(?__memcpy)
	movlw	high(STR_7|8000h)
	movwf	((?__memcpy))+1
	movlw	016h
	movwf	0+(?__memcpy)+02h
	clrf	1+(?__memcpy)+02h
	movlw	(_display_str)&0ffh
	fcall	__memcpy
	line	119
	
l9966:	
;main.c: 119: NoOfBytes = eeprom_read(101);
	movlw	(065h)
	fcall	_eeprom_read
	bcf	status, 6	;RP1=0, select bank0
	movwf	(_NoOfBytes)
	line	120
	
l9968:	
;main.c: 120: if(NoOfBytes == 0xFF)
	movf	(_NoOfBytes),w
	xorlw	0FFh
	skipz
	goto	u2841
	goto	u2840
u2841:
	goto	l9976
u2840:
	line	122
	
l9970:	
;main.c: 121: {
;main.c: 122: eeprom_str_write("        ENTER SOME TEXT        ",0x00,31);
	movlw	low(STR_8|8000h)
	movwf	(?_eeprom_str_write)
	movlw	high(STR_8|8000h)
	movwf	((?_eeprom_str_write))+1
	clrf	0+(?_eeprom_str_write)+02h
	movlw	(01Fh)
	movwf	0+(?_eeprom_str_write)+03h
	fcall	_eeprom_str_write
	line	123
	
l9972:	
;main.c: 123: NoOfBytes = 31;
	movlw	(01Fh)
	movwf	(_NoOfBytes)
	line	124
	
l9974:	
;main.c: 124: eeprom_write(101,NoOfBytes);
	movf	(_NoOfBytes),w
	movwf	(?_eeprom_write)
	movlw	(065h)
	fcall	_eeprom_write
	line	129
	
l9976:	
;main.c: 125: }
;main.c: 129: char_cntrl.char_count = 0;
	bcf	status, 5	;RP0=0, select bank0
	bcf	status, 6	;RP1=0, select bank0
	clrf	(_char_cntrl)
	line	130
	
l9978:	
;main.c: 130: char_cntrl.char_length= 0;
	clrf	0+(_char_cntrl)+01h
	line	132
	
l9980:	
;main.c: 132: clr_disp();
	fcall	_clr_disp
	line	133
	
l9982:	
;main.c: 133: charUpdate();
	fcall	_charUpdate
	line	134
	
l9984:	
;main.c: 134: TMR1ON=1;
	bsf	(128/8),(128)&7
	line	135
	
l9986:	
;main.c: 135: TMR0IE=1;
	bsf	(93/8),(93)&7
	line	138
	
l9988:	
;main.c: 137: {
;main.c: 138: if(bitVars.PS2Active==1)
	btfss	(_bitVars),5
	goto	u2851
	goto	u2850
u2851:
	goto	l9988
u2850:
	line	140
	
l9990:	
;main.c: 139: {
;main.c: 140: TMR0IE=0;
	bcf	(93/8),(93)&7
	line	141
;main.c: 141: TMR1ON=0;
	bcf	(128/8),(128)&7
	line	142
	
l9992:	
;main.c: 142: keybrdInput();
	fcall	_keybrdInput
	line	143
	
l9994:	
;main.c: 143: if(bitVars.PS2Active==0)
	btfsc	(_bitVars),5
	goto	u2861
	goto	u2860
u2861:
	goto	l9988
u2860:
	line	146
	
l9996:	
;main.c: 144: {
;main.c: 146: bitVars.PS2Active=0;
	bcf	(_bitVars),5
	goto	l9988
	global	start
	ljmp	start
	opt stack 0
psect	maintext
	line	161
GLOBAL	__end_of_main
	__end_of_main:
;; =============== function _main ends ============

	signat	_main,88
	global	_keybrdInput
psect	text945,local,class=CODE,delta=2
global __ptext945
__ptext945:

;; *************** function _keybrdInput *****************
;; Defined at:
;;		line 366 in file "C:\Users\ranjan\Desktop\matrix\ps2_kbd.c"
;; Parameters:    Size  Location     Type
;;		None
;; Auto vars:     Size  Location     Type
;;  cursor_i        1   48[BANK0 ] unsigned char 
;;  offset_i        1   47[BANK0 ] unsigned char 
;;  display_str     1   46[BANK0 ] unsigned char [1]
;;  key             1   45[BANK0 ] unsigned char 
;;  max_i           1   44[BANK0 ] unsigned char 
;;  totalChar       1   43[BANK0 ] unsigned char 
;;  wait            1   42[BANK0 ] unsigned char 
;;  min_i           1   41[BANK0 ] unsigned char 
;;  max_len         1   40[BANK0 ] unsigned char 
;; Return value:  Size  Location     Type
;;		None               void
;; Registers used:
;;		wreg, fsr0l, fsr0h, status,2, status,0, btemp+1, pclath, cstack
;; Tracked objects:
;;		On entry : 60/0
;;		On exit  : 60/0
;;		Unchanged: 0/0
;; Data sizes:     COMMON   BANK0   BANK1   BANK3   BANK2
;;      Params:         0       0       0       0       0
;;      Locals:         0       9       0       0       0
;;      Temps:          0       2       0       0       0
;;      Totals:         0      11       0       0       0
;;Total ram usage:       11 bytes
;; Hardware stack levels used:    1
;; Hardware stack levels required when called:    7
;; This function calls:
;;		_clr_disp
;;		_small_font_disp
;;		_refresh_display
;;		_put_cursor
;;		__memset
;;		_getKey
;;		_select_scrll_speed
;;		_Back
;;		_eeprom_write
;;		_eeprom_str_read
;;		_eeprom_str_write
;; This function is called by:
;;		_main
;; This function uses a non-reentrant model
;;
psect	text945
	file	"C:\Users\ranjan\Desktop\matrix\ps2_kbd.c"
	line	366
	global	__size_of_keybrdInput
	__size_of_keybrdInput	equ	__end_of_keybrdInput-_keybrdInput
	
_keybrdInput:	
	opt	stack 0
; Regs used in _keybrdInput: [wreg-fsr0h+status,2+status,0+btemp+1+pclath+cstack]
	line	367
	
l9774:	
;ps2_kbd.c: 367: unsigned char key=0xFF;
	movlw	(0FFh)
	movwf	(keybrdInput@key)
	line	368
;ps2_kbd.c: 368: unsigned char wait=0xEF;
	movlw	(0EFh)
	movwf	(keybrdInput@wait)
	line	370
;ps2_kbd.c: 370: unsigned char max_len=10;
	movlw	(0Ah)
	movwf	(keybrdInput@max_len)
	line	371
	
l9776:	
;ps2_kbd.c: 371: unsigned char cursor_i=0;
	clrf	(keybrdInput@cursor_i)
	line	372
	
l9778:	
;ps2_kbd.c: 372: unsigned char max_i=7;
	movlw	(07h)
	movwf	(keybrdInput@max_i)
	line	373
	
l9780:	
;ps2_kbd.c: 373: unsigned char min_i=2;
	movlw	(02h)
	movwf	(keybrdInput@min_i)
	line	374
	
l9782:	
;ps2_kbd.c: 374: unsigned char offset_i=0;
	clrf	(keybrdInput@offset_i)
	line	375
	
l9784:	
;ps2_kbd.c: 375: unsigned char totalChar=0;
	clrf	(keybrdInput@totalChar)
	line	378
	
l9786:	
;ps2_kbd.c: 376: unsigned char display_str[1];
;ps2_kbd.c: 378: clr_disp();
	fcall	_clr_disp
	line	379
	
l9788:	
;ps2_kbd.c: 379: small_font_disp((unsigned char*)"WAIT...",7,0);
	movlw	low(STR_1|8000h)
	movwf	(?_small_font_disp)
	movlw	high(STR_1|8000h)
	movwf	((?_small_font_disp))+1
	movlw	(07h)
	movwf	0+(?_small_font_disp)+02h
	clrf	0+(?_small_font_disp)+03h
	fcall	_small_font_disp
	line	381
;ps2_kbd.c: 381: while(--wait) refresh_display();
	goto	l9792
	
l9790:	
	fcall	_refresh_display
	
l9792:	
	bcf	status, 5	;RP0=0, select bank0
	bcf	status, 6	;RP1=0, select bank0
	decfsz	(keybrdInput@wait),f
	goto	u2661
	goto	u2660
u2661:
	goto	l9790
u2660:
	line	383
	
l9794:	
;ps2_kbd.c: 383: wait=0XEF;
	movlw	(0EFh)
	movwf	(keybrdInput@wait)
	line	384
	
l9796:	
;ps2_kbd.c: 384: clr_disp();
	fcall	_clr_disp
	line	385
	
l9798:	
;ps2_kbd.c: 385: small_font_disp((unsigned char*)"TYPE NOW.",9,0);
	movlw	low(STR_2|8000h)
	movwf	(?_small_font_disp)
	movlw	high(STR_2|8000h)
	movwf	((?_small_font_disp))+1
	movlw	(09h)
	movwf	0+(?_small_font_disp)+02h
	clrf	0+(?_small_font_disp)+03h
	fcall	_small_font_disp
	line	386
	
l9800:	
;ps2_kbd.c: 386: put_cursor(cursor_i);
	movf	(keybrdInput@cursor_i),w
	fcall	_put_cursor
	line	388
	
l9802:	
;ps2_kbd.c: 388: inptr=outptr;
	movf	(_outptr),w
	movwf	(_inptr)
	line	389
	
l9804:	
;ps2_kbd.c: 389: _memset(display_str,' ',sizeof(display_str));
	movlw	(keybrdInput@display_str&0ffh)
	movwf	(?__memset)
	movlw	(0x0/2)
	movwf	(?__memset+1)
	movlw	(020h)
	movwf	0+(?__memset)+02h
	clrf	0+(?__memset)+03h
	incf	0+(?__memset)+03h,f
	clrf	1+(?__memset)+03h
	fcall	__memset
	line	391
;ps2_kbd.c: 391: while(key!=17)
	goto	l9894
	line	393
	
l9806:	
;ps2_kbd.c: 392: {
;ps2_kbd.c: 393: refresh_display();
	fcall	_refresh_display
	line	394
	
l9808:	
;ps2_kbd.c: 394: if(inptr!=outptr)
	bcf	status, 5	;RP0=0, select bank0
	bcf	status, 6	;RP1=0, select bank0
	movf	(_inptr),w
	xorwf	(_outptr),w
	skipnz
	goto	u2671
	goto	u2670
u2671:
	goto	l9894
u2670:
	line	396
	
l9810:	
;ps2_kbd.c: 395: {
;ps2_kbd.c: 396: clr_disp();
	fcall	_clr_disp
	line	397
;ps2_kbd.c: 397: key=getKey();
	fcall	_getKey
	movwf	(keybrdInput@key)
	line	398
;ps2_kbd.c: 398: switch(key)
	goto	l9886
	line	402
	
l9812:	
;ps2_kbd.c: 402: select_scrll_speed();
	fcall	_select_scrll_speed
	line	403
	
l9814:	
;ps2_kbd.c: 403: bitVars.PS2Active=0;
	bcf	(_bitVars),5
	line	404
	
l9816:	
;ps2_kbd.c: 404: inptr=outptr;
	movf	(_outptr),w
	movwf	(_inptr)
	goto	l1134
	line	410
	
l9820:	
;ps2_kbd.c: 410: Back(display_str,cursor_i+offset_i,sizeof(display_str));
	movf	(keybrdInput@offset_i),w
	addwf	(keybrdInput@cursor_i),w
	movwf	(?_Back)
	clrf	0+(?_Back)+01h
	incf	0+(?_Back)+01h,f
	movlw	(keybrdInput@display_str)&0ffh
	fcall	_Back
	line	411
	
l9822:	
;ps2_kbd.c: 411: totalChar--;
	decf	(keybrdInput@totalChar),f
	line	412
;ps2_kbd.c: 412: break;
	goto	l9888
	line	415
	
l9824:	
;ps2_kbd.c: 415: if((cursor_i+offset_i)==0)
	movf	(keybrdInput@cursor_i),w
	addwf	(keybrdInput@offset_i),w
	movwf	(??_keybrdInput+0)+0
	clrf	(??_keybrdInput+0)+0+1
	rlf	1+(??_keybrdInput+0)+0,f
	
	movf	1+(??_keybrdInput+0)+0,w
	iorwf	0+(??_keybrdInput+0)+0,w
	skipz
	goto	u2681
	goto	u2680
u2681:
	goto	l9828
u2680:
	goto	l9888
	line	417
	
l9828:	
;ps2_kbd.c: 417: if((cursor_i > min_i) || (cursor_i <= 2 && offset_i==0))
	movf	(keybrdInput@cursor_i),w
	subwf	(keybrdInput@min_i),w
	skipc
	goto	u2691
	goto	u2690
u2691:
	goto	l9834
u2690:
	
l9830:	
	movlw	(03h)
	subwf	(keybrdInput@cursor_i),w
	skipnc
	goto	u2701
	goto	u2700
u2701:
	goto	l9836
u2700:
	
l9832:	
	movf	(keybrdInput@offset_i),f
	skipz
	goto	u2711
	goto	u2710
u2711:
	goto	l9836
u2710:
	line	418
	
l9834:	
;ps2_kbd.c: 418: cursor_i--;
	decf	(keybrdInput@cursor_i),f
	goto	l9888
	line	419
	
l9836:	
;ps2_kbd.c: 419: else offset_i--;
	decf	(keybrdInput@offset_i),f
	goto	l9888
	line	423
	
l9838:	
;ps2_kbd.c: 423: if((cursor_i+offset_i) == max_len)
	movf	(keybrdInput@cursor_i),w
	addwf	(keybrdInput@offset_i),w
	movwf	(??_keybrdInput+0)+0
	clrf	(??_keybrdInput+0)+0+1
	rlf	1+(??_keybrdInput+0)+0,f
	
	movf	(keybrdInput@max_len),w
	xorwf	0+(??_keybrdInput+0)+0,w
	iorwf	1+(??_keybrdInput+0)+0,w
	skipz
	goto	u2721
	goto	u2720
u2721:
	goto	l9842
u2720:
	goto	l9888
	line	425
	
l9842:	
;ps2_kbd.c: 425: if(cursor_i < max_i) cursor_i++;
	movf	(keybrdInput@max_i),w
	subwf	(keybrdInput@cursor_i),w
	skipnc
	goto	u2731
	goto	u2730
u2731:
	goto	l9846
u2730:
	
l9844:	
	incf	(keybrdInput@cursor_i),f
	goto	l9888
	line	426
	
l9846:	
;ps2_kbd.c: 426: else offset_i++;
	incf	(keybrdInput@offset_i),f
	goto	l9888
	line	430
	
l9848:	
;ps2_kbd.c: 430: if((cursor_i+offset_i)==0) break;
	movf	(keybrdInput@cursor_i),w
	addwf	(keybrdInput@offset_i),w
	movwf	(??_keybrdInput+0)+0
	clrf	(??_keybrdInput+0)+0+1
	rlf	1+(??_keybrdInput+0)+0,f
	
	movf	1+(??_keybrdInput+0)+0,w
	iorwf	0+(??_keybrdInput+0)+0,w
	skipz
	goto	u2741
	goto	u2740
u2741:
	goto	l9852
u2740:
	goto	l9888
	line	431
	
l9852:	
;ps2_kbd.c: 431: if((cursor_i > min_i) || (cursor_i <= 2 && offset_i==0))
	movf	(keybrdInput@cursor_i),w
	subwf	(keybrdInput@min_i),w
	skipc
	goto	u2751
	goto	u2750
u2751:
	goto	l9858
u2750:
	
l9854:	
	movlw	(03h)
	subwf	(keybrdInput@cursor_i),w
	skipnc
	goto	u2761
	goto	u2760
u2761:
	goto	l9860
u2760:
	
l9856:	
	movf	(keybrdInput@offset_i),f
	skipz
	goto	u2771
	goto	u2770
u2771:
	goto	l9860
u2770:
	line	432
	
l9858:	
;ps2_kbd.c: 432: cursor_i--;
	decf	(keybrdInput@cursor_i),f
	goto	l9862
	line	433
	
l9860:	
;ps2_kbd.c: 433: else offset_i--;
	decf	(keybrdInput@offset_i),f
	line	435
	
l9862:	
;ps2_kbd.c: 435: Back(display_str,cursor_i+offset_i,sizeof(display_str));
	movf	(keybrdInput@offset_i),w
	addwf	(keybrdInput@cursor_i),w
	movwf	(?_Back)
	clrf	0+(?_Back)+01h
	incf	0+(?_Back)+01h,f
	movlw	(keybrdInput@display_str)&0ffh
	fcall	_Back
	goto	l9822
	line	440
	
l9866:	
;ps2_kbd.c: 440: if((cursor_i+offset_i) == max_len)
	movf	(keybrdInput@cursor_i),w
	addwf	(keybrdInput@offset_i),w
	movwf	(??_keybrdInput+0)+0
	clrf	(??_keybrdInput+0)+0+1
	rlf	1+(??_keybrdInput+0)+0,f
	
	movf	(keybrdInput@max_len),w
	xorwf	0+(??_keybrdInput+0)+0,w
	iorwf	1+(??_keybrdInput+0)+0,w
	skipz
	goto	u2781
	goto	u2780
u2781:
	goto	l9870
u2780:
	goto	l9888
	line	444
	
l9870:	
;ps2_kbd.c: 444: if(key>=32 && key<=127)
	movlw	(020h)
	subwf	(keybrdInput@key),w
	skipc
	goto	u2791
	goto	u2790
u2791:
	goto	l9888
u2790:
	
l9872:	
	movlw	(080h)
	subwf	(keybrdInput@key),w
	skipnc
	goto	u2801
	goto	u2800
u2801:
	goto	l9888
u2800:
	line	446
	
l9874:	
;ps2_kbd.c: 445: {
;ps2_kbd.c: 446: eeprom_write(0x00+cursor_i+offset_i,key);
	movf	(keybrdInput@key),w
	movwf	(?_eeprom_write)
	movf	(keybrdInput@offset_i),w
	addwf	(keybrdInput@cursor_i),w
	fcall	_eeprom_write
	line	448
	
l9876:	
;ps2_kbd.c: 448: totalChar++;
	bcf	status, 5	;RP0=0, select bank0
	bcf	status, 6	;RP1=0, select bank0
	incf	(keybrdInput@totalChar),f
	line	449
	
l9878:	
;ps2_kbd.c: 449: if(cursor_i < max_i) cursor_i++;
	movf	(keybrdInput@max_i),w
	subwf	(keybrdInput@cursor_i),w
	skipnc
	goto	u2811
	goto	u2810
u2811:
	goto	l9846
u2810:
	goto	l9844
	line	398
	
l9886:	
	movf	(keybrdInput@key),w
	; Switch size 1, requested type "space"
; Number of cases is 5, Range of values is 0 to 162
; switch strategies available:
; Name         Instructions Cycles
; simple_byte           16     9 (average)
; jumptable            260     6 (fixed)
; rangetable           167     6 (fixed)
; spacedrange          332     9 (fixed)
; locatedrange         163     3 (fixed)
;	Chosen strategy is simple_byte

	opt asmopt_off
	xorlw	0^0	; case 0
	skipnz
	goto	l9812
	xorlw	18^0	; case 18
	skipnz
	goto	l9848
	xorlw	26^18	; case 26
	skipnz
	goto	l9820
	xorlw	30^26	; case 30
	skipnz
	goto	l9824
	xorlw	162^30	; case 162
	skipnz
	goto	l9838
	goto	l9866
	opt asmopt_on

	line	455
	
l9888:	
;ps2_kbd.c: 455: small_font_disp((unsigned char*)"TYPE NOW.",9,0);
	movlw	low(STR_3|8000h)
	movwf	(?_small_font_disp)
	movlw	high(STR_3|8000h)
	movwf	((?_small_font_disp))+1
	movlw	(09h)
	movwf	0+(?_small_font_disp)+02h
	clrf	0+(?_small_font_disp)+03h
	fcall	_small_font_disp
	line	456
	
l9890:	
;ps2_kbd.c: 456: eeprom_str_read(display_str, offset_i, max_i);
	movf	(keybrdInput@offset_i),w
	movwf	(?_eeprom_str_read)
	movf	(keybrdInput@max_i),w
	movwf	0+(?_eeprom_str_read)+01h
	movlw	(keybrdInput@display_str)&0ffh
	fcall	_eeprom_str_read
	line	458
	
l9892:	
;ps2_kbd.c: 458: small_font_disp(display_str,max_i,1);
	movlw	(keybrdInput@display_str&0ffh)
	movwf	(?_small_font_disp)
	movlw	(0x0/2)
	movwf	(?_small_font_disp+1)
	movf	(keybrdInput@max_i),w
	movwf	0+(?_small_font_disp)+02h
	clrf	0+(?_small_font_disp)+03h
	incf	0+(?_small_font_disp)+03h,f
	fcall	_small_font_disp
	line	459
;ps2_kbd.c: 459: put_cursor(cursor_i);
	movf	(keybrdInput@cursor_i),w
	fcall	_put_cursor
	line	391
	
l9894:	
	movf	(keybrdInput@key),w
	xorlw	011h
	skipz
	goto	u2821
	goto	u2820
u2821:
	goto	l9806
u2820:
	line	463
	
l9896:	
;ps2_kbd.c: 460: }
;ps2_kbd.c: 461: }
;ps2_kbd.c: 463: clr_disp();
	fcall	_clr_disp
	line	464
	
l9898:	
;ps2_kbd.c: 464: small_font_disp((unsigned char*)"WAIT...",7,0);
	movlw	low(STR_4|8000h)
	movwf	(?_small_font_disp)
	movlw	high(STR_4|8000h)
	movwf	((?_small_font_disp))+1
	movlw	(07h)
	movwf	0+(?_small_font_disp)+02h
	clrf	0+(?_small_font_disp)+03h
	fcall	_small_font_disp
	line	466
;ps2_kbd.c: 466: while(--wait) refresh_display();
	goto	l9902
	
l9900:	
	fcall	_refresh_display
	
l9902:	
	bcf	status, 5	;RP0=0, select bank0
	bcf	status, 6	;RP1=0, select bank0
	decfsz	(keybrdInput@wait),f
	goto	u2831
	goto	u2830
u2831:
	goto	l9900
u2830:
	line	467
	
l9904:	
;ps2_kbd.c: 467: clr_disp();
	fcall	_clr_disp
	line	468
	
l9906:	
;ps2_kbd.c: 468: eeprom_write(0x00,totalChar+16);
	movf	(keybrdInput@totalChar),w
	addlw	010h
	movwf	(?_eeprom_write)
	movlw	(0)
	fcall	_eeprom_write
	line	469
	
l9908:	
;ps2_kbd.c: 469: eeprom_str_write((unsigned char*)"        ",0x01,8);
	movlw	low(STR_5|8000h)
	bcf	status, 5	;RP0=0, select bank0
	bcf	status, 6	;RP1=0, select bank0
	movwf	(?_eeprom_str_write)
	movlw	high(STR_5|8000h)
	movwf	((?_eeprom_str_write))+1
	clrf	0+(?_eeprom_str_write)+02h
	incf	0+(?_eeprom_str_write)+02h,f
	movlw	(08h)
	movwf	0+(?_eeprom_str_write)+03h
	fcall	_eeprom_str_write
	line	470
	
l9910:	
;ps2_kbd.c: 470: eeprom_str_write(display_str,0x09,totalChar);
	movlw	(keybrdInput@display_str&0ffh)
	movwf	(?_eeprom_str_write)
	movlw	(0x0/2)
	movwf	(?_eeprom_str_write+1)
	movlw	(09h)
	movwf	0+(?_eeprom_str_write)+02h
	movf	(keybrdInput@totalChar),w
	movwf	0+(?_eeprom_str_write)+03h
	fcall	_eeprom_str_write
	line	471
	
l9912:	
;ps2_kbd.c: 471: eeprom_str_write((unsigned char*)"        ",0x09+totalChar,8);
	movlw	low(STR_6|8000h)
	movwf	(?_eeprom_str_write)
	movlw	high(STR_6|8000h)
	movwf	((?_eeprom_str_write))+1
	movf	(keybrdInput@totalChar),w
	addlw	09h
	movwf	0+(?_eeprom_str_write)+02h
	movlw	(08h)
	movwf	0+(?_eeprom_str_write)+03h
	fcall	_eeprom_str_write
	line	472
	
l9914:	
;ps2_kbd.c: 472: bitVars.PS2Active=0;
	bcf	(_bitVars),5
	line	473
	
l1134:	
	return
	opt stack 0
GLOBAL	__end_of_keybrdInput
	__end_of_keybrdInput:
;; =============== function _keybrdInput ends ============

	signat	_keybrdInput,88
	global	_charUpdate
psect	text946,local,class=CODE,delta=2
global __ptext946
__ptext946:

;; *************** function _charUpdate *****************
;; Defined at:
;;		line 65 in file "C:\Users\ranjan\Desktop\matrix\LDM.c"
;; Parameters:    Size  Location     Type
;;		None
;; Auto vars:     Size  Location     Type
;;  temp            2   36[BANK0 ] unsigned int 
;;  ptr             2   33[BANK0 ] PTR unsigned char 
;;		 -> Arial_Rounded_MT_Bold20x16(3705), 
;;  col             1   38[BANK0 ] unsigned char 
;;  charac          1   35[BANK0 ] unsigned char 
;;  i               1   32[BANK0 ] unsigned char 
;;  j               1   31[BANK0 ] unsigned char 
;;  size            1   30[BANK0 ] unsigned char 
;; Return value:  Size  Location     Type
;;		None               void
;; Registers used:
;;		wreg, fsr0l, fsr0h, status,2, status,0, btemp+1, pclath, cstack
;; Tracked objects:
;;		On entry : 60/0
;;		On exit  : 60/0
;;		Unchanged: FFE9F/0
;; Data sizes:     COMMON   BANK0   BANK1   BANK3   BANK2
;;      Params:         0       0       0       0       0
;;      Locals:         0       9       0       0       0
;;      Temps:          0       2       0       0       0
;;      Totals:         0      11       0       0       0
;;Total ram usage:       11 bytes
;; Hardware stack levels used:    1
;; Hardware stack levels required when called:    6
;; This function calls:
;;		_get_Arial_Rounded_MT_Bold15x16
;; This function is called by:
;;		_main
;; This function uses a non-reentrant model
;;
psect	text946
	file	"C:\Users\ranjan\Desktop\matrix\LDM.c"
	line	65
	global	__size_of_charUpdate
	__size_of_charUpdate	equ	__end_of_charUpdate-_charUpdate
	
_charUpdate:	
	opt	stack 1
; Regs used in _charUpdate: [wreg-fsr0h+status,2+status,0+btemp+1+pclath+cstack]
	line	70
	
l9726:	
;LDM.c: 66: unsigned char charac;
;LDM.c: 67: unsigned char i;
;LDM.c: 68: unsigned char *ptr;
;LDM.c: 69: unsigned int temp;
;LDM.c: 70: unsigned char col=0;
	clrf	(charUpdate@col)
	line	72
;LDM.c: 72: unsigned char j=0;
	clrf	(charUpdate@j)
	line	74
	
l9728:	
;LDM.c: 74: charac=display_str[char_cntrl.char_count];
	movf	(_char_cntrl),w
	addlw	_display_str&0ffh
	movwf	fsr0
	bsf	status, 7	;select IRP bank2
	movf	indf,w
	movwf	(charUpdate@charac)
	line	76
	
l9730:	
;LDM.c: 76: char_cntrl.char_length = *get_Arial_Rounded_MT_Bold15x16(charac);
	movf	(charUpdate@charac),w
	fcall	_get_Arial_Rounded_MT_Bold15x16
	movf	(1+(?_get_Arial_Rounded_MT_Bold15x16)),w
	movwf	btemp+1
	movf	(0+(?_get_Arial_Rounded_MT_Bold15x16)),w
	movwf	fsr0
	fcall	stringtab
	movwf	0+(_char_cntrl)+01h
	line	77
;LDM.c: 77: while(charac!=0xFF)
	goto	l9772
	line	79
	
l9732:	
;LDM.c: 78: {
;LDM.c: 79: ptr = get_Arial_Rounded_MT_Bold15x16(charac);
	movf	(charUpdate@charac),w
	fcall	_get_Arial_Rounded_MT_Bold15x16
	movf	(1+(?_get_Arial_Rounded_MT_Bold15x16)),w
	movwf	(charUpdate@ptr+1)
	movf	(0+(?_get_Arial_Rounded_MT_Bold15x16)),w
	movwf	(charUpdate@ptr)
	line	80
	
l9734:	
;LDM.c: 80: size = *ptr;
	movf	(charUpdate@ptr+1),w
	movwf	btemp+1
	movf	(charUpdate@ptr),w
	movwf	fsr0
	fcall	stringtab
	movwf	(charUpdate@size)
	line	81
	
l9736:	
;LDM.c: 81: j++;
	incf	(charUpdate@j),f
	line	82
	
l9738:	
;LDM.c: 82: for(i=0; i<size; i++,col++)
	clrf	(charUpdate@i)
	goto	l9768
	line	84
	
l9740:	
;LDM.c: 83: {
;LDM.c: 84: if(i==0) temp=0;
	movf	(charUpdate@i),f
	skipz
	goto	u2581
	goto	u2580
u2581:
	goto	l9744
u2580:
	
l9742:	
	clrf	(charUpdate@temp)
	clrf	(charUpdate@temp+1)
	goto	l3307
	line	88
	
l9744:	
;LDM.c: 85: else
;LDM.c: 86: {
;LDM.c: 88: temp=*(++ptr+1);
	movlw	01h
	incf	(charUpdate@ptr),f
	skipnz
	incf	(charUpdate@ptr+1),f
	addwf	((charUpdate@ptr)),w
	movwf	fsr0
	movf	((charUpdate@ptr+1)),w
	skipnc
	incf	((charUpdate@ptr+1)),w
	movwf	btemp+1
	fcall	stringtab
	movwf	(charUpdate@temp)
	clrf	(charUpdate@temp+1)
	line	89
	
l9746:	
;LDM.c: 89: temp<<=8;
	movf	(charUpdate@temp),w
	movwf	(charUpdate@temp+1)
	clrf	(charUpdate@temp)
	line	90
	
l9748:	
;LDM.c: 90: temp|=*(ptr++);
	movf	(charUpdate@ptr+1),w
	movwf	btemp+1
	movf	(charUpdate@ptr),w
	movwf	fsr0
	fcall	stringtab
	iorwf	(charUpdate@temp),f
	
l9750:	
	incf	(charUpdate@ptr),f
	skipnz
	incf	(charUpdate@ptr+1),f
	line	96
	
l3307:	
	line	97
;LDM.c: 96: }
;LDM.c: 97: if(col<=31) dispRam1[col]=temp;
	movlw	(020h)
	subwf	(charUpdate@col),w
	skipnc
	goto	u2591
	goto	u2590
u2591:
	goto	l9754
u2590:
	
l9752:	
	clrc
	rlf	(charUpdate@col),w
	addlw	_dispRam1&0ffh
	movwf	fsr0
	movf	(charUpdate@temp),w
	bsf	status, 7	;select IRP bank3
	movwf	indf
	incf	fsr0,f
	movf	(charUpdate@temp+1),w
	movwf	indf
	goto	l9766
	line	98
	
l9754:	
;LDM.c: 98: else if(col>=32 && col<=63) dispRam2[col-32]=temp;
	movlw	(020h)
	subwf	(charUpdate@col),w
	skipc
	goto	u2601
	goto	u2600
u2601:
	goto	l9760
u2600:
	
l9756:	
	movlw	(040h)
	subwf	(charUpdate@col),w
	skipnc
	goto	u2611
	goto	u2610
u2611:
	goto	l9760
u2610:
	
l9758:	
	clrc
	rlf	(charUpdate@col),w
	addlw	_dispRam2+-64&0ffh
	movwf	fsr0
	movf	(charUpdate@temp),w
	bcf	status, 7	;select IRP bank1
	movwf	indf
	incf	fsr0,f
	movf	(charUpdate@temp+1),w
	movwf	indf
	goto	l9766
	line	99
	
l9760:	
;LDM.c: 99: else if(col>=64 && col<=83) right_side[col-64] = temp;
	movlw	(040h)
	subwf	(charUpdate@col),w
	skipc
	goto	u2621
	goto	u2620
u2621:
	goto	l3314
u2620:
	
l9762:	
	movlw	(054h)
	subwf	(charUpdate@col),w
	skipnc
	goto	u2631
	goto	u2630
u2631:
	goto	l3314
u2630:
	
l9764:	
	clrc
	rlf	(charUpdate@col),w
	addlw	_right_side+-128&0ffh
	movwf	fsr0
	movf	(charUpdate@temp),w
	bsf	status, 7	;select IRP bank2
	movwf	indf
	incf	fsr0,f
	movf	(charUpdate@temp+1),w
	movwf	indf
	line	82
	
l9766:	
	incf	(charUpdate@i),f
	incf	(charUpdate@col),f
	
l9768:	
	movf	(charUpdate@size),w
	subwf	(charUpdate@i),w
	skipc
	goto	u2641
	goto	u2640
u2641:
	goto	l9740
u2640:
	line	102
	
l9770:	
;LDM.c: 101: }
;LDM.c: 102: charac=display_str[char_cntrl.char_count+j];
	movlw	(_display_str)&0ffh
	addwf	(_char_cntrl),w
	movwf	(??_charUpdate+0)+0
	movf	(charUpdate@j),w
	addwf	0+(??_charUpdate+0)+0,w
	movwf	(??_charUpdate+1)+0
	movf	0+(??_charUpdate+1)+0,w
	movwf	fsr0
	bsf	status, 7	;select IRP bank2
	movf	indf,w
	movwf	(charUpdate@charac)
	line	77
	
l9772:	
	movf	(charUpdate@charac),w
	xorlw	0FFh
	skipz
	goto	u2651
	goto	u2650
u2651:
	goto	l9732
u2650:
	line	105
	
l3314:	
	return
	opt stack 0
GLOBAL	__end_of_charUpdate
	__end_of_charUpdate:
;; =============== function _charUpdate ends ============

	signat	_charUpdate,88
	global	_small_font_disp
psect	text947,local,class=CODE,delta=2
global __ptext947
__ptext947:

;; *************** function _small_font_disp *****************
;; Defined at:
;;		line 126 in file "C:\Users\ranjan\Desktop\matrix\LDM.c"
;; Parameters:    Size  Location     Type
;;  ptr             2   28[BANK0 ] PTR unsigned char 
;;		 -> STR_4(8), STR_3(10), keybrdInput@display_str(1), STR_2(10), 
;;		 -> STR_1(8), 
;;  length          1   30[BANK0 ] unsigned char 
;;  line_no         1   31[BANK0 ] unsigned char 
;; Auto vars:     Size  Location     Type
;;  font_data       2   34[BANK0 ] unsigned int 
;;  data_ptr        2   32[BANK0 ] PTR unsigned char 
;;		 -> font_5X7(475), 
;;  i               1   37[BANK0 ] unsigned char 
;;  count           1   36[BANK0 ] unsigned char 
;; Return value:  Size  Location     Type
;;		None               void
;; Registers used:
;;		wreg, fsr0l, fsr0h, status,2, status,0, btemp+1, pclath, cstack
;; Tracked objects:
;;		On entry : 60/0
;;		On exit  : 60/0
;;		Unchanged: FFE9F/0
;; Data sizes:     COMMON   BANK0   BANK1   BANK3   BANK2
;;      Params:         0       4       0       0       0
;;      Locals:         0       6       0       0       0
;;      Temps:          0       0       0       0       0
;;      Totals:         0      10       0       0       0
;;Total ram usage:       10 bytes
;; Hardware stack levels used:    1
;; Hardware stack levels required when called:    6
;; This function calls:
;;		_get_font_5X7
;;		_fillRAM
;; This function is called by:
;;		_keybrdInput
;; This function uses a non-reentrant model
;;
psect	text947
	file	"C:\Users\ranjan\Desktop\matrix\LDM.c"
	line	126
	global	__size_of_small_font_disp
	__size_of_small_font_disp	equ	__end_of_small_font_disp-_small_font_disp
	
_small_font_disp:	
;; using string table level
	opt	stack 1
; Regs used in _small_font_disp: [wreg-fsr0h+status,2+status,0+btemp+1+pclath+cstack]
	line	127
	
l9690:	
	line	129
;LDM.c: 128: unsigned char *data_ptr;
;LDM.c: 129: unsigned char count=0;
	clrf	(small_font_disp@count)
	line	130
;LDM.c: 130: unsigned int font_data=0;
	clrf	(small_font_disp@font_data)
	clrf	(small_font_disp@font_data+1)
	line	132
;LDM.c: 132: while(length--)
	goto	l9724
	line	134
	
l9692:	
;LDM.c: 133: {
;LDM.c: 134: data_ptr=get_font_5X7(*ptr);
	movf	(small_font_disp@ptr+1),w
	movwf	btemp+1
	movf	(small_font_disp@ptr),w
	movwf	fsr0
	fcall	stringtab
	fcall	_get_font_5X7
	movf	(1+(?_get_font_5X7)),w
	movwf	(small_font_disp@data_ptr+1)
	movf	(0+(?_get_font_5X7)),w
	movwf	(small_font_disp@data_ptr)
	line	135
	
l9694:	
;LDM.c: 135: for(i=0; i<6; i++,count++)
	clrf	(small_font_disp@i)
	line	137
	
l9700:	
;LDM.c: 136: {
;LDM.c: 137: if(count>64) return;
	movlw	(041h)
	subwf	(small_font_disp@count),w
	skipc
	goto	u2531
	goto	u2530
u2531:
	goto	l9704
u2530:
	goto	l3331
	line	138
	
l9704:	
;LDM.c: 138: if(i==5) font_data=00;
	movf	(small_font_disp@i),w
	xorlw	05h
	skipz
	goto	u2541
	goto	u2540
u2541:
	goto	l9708
u2540:
	
l9706:	
	clrf	(small_font_disp@font_data)
	clrf	(small_font_disp@font_data+1)
	goto	l9710
	line	139
	
l9708:	
;LDM.c: 139: else font_data=*(data_ptr+i);
	movf	(small_font_disp@i),w
	addwf	(small_font_disp@data_ptr),w
	movwf	fsr0
	movf	(small_font_disp@data_ptr+1),w
	skipnc
	incf	(small_font_disp@data_ptr+1),w
	movwf	btemp+1
	fcall	stringtab
	movwf	(small_font_disp@font_data)
	clrf	(small_font_disp@font_data+1)
	line	140
	
l9710:	
;LDM.c: 140: if(line_no==1) font_data<<=8;
	decf	(small_font_disp@line_no),w
	skipz
	goto	u2551
	goto	u2550
u2551:
	goto	l9714
u2550:
	
l9712:	
	movf	(small_font_disp@font_data),w
	movwf	(small_font_disp@font_data+1)
	clrf	(small_font_disp@font_data)
	line	141
	
l9714:	
;LDM.c: 141: fillRAM(count, font_data);
	movf	(small_font_disp@font_data+1),w
	movwf	(?_fillRAM+1)
	movf	(small_font_disp@font_data),w
	movwf	(?_fillRAM)
	movf	(small_font_disp@count),w
	fcall	_fillRAM
	line	135
	
l9716:	
	incf	(small_font_disp@i),f
	
l9718:	
	incf	(small_font_disp@count),f
	
l9720:	
	movlw	(06h)
	subwf	(small_font_disp@i),w
	skipc
	goto	u2561
	goto	u2560
u2561:
	goto	l9700
u2560:
	line	143
	
l9722:	
;LDM.c: 142: }
;LDM.c: 143: ptr++;
	incf	(small_font_disp@ptr),f
	skipnz
	incf	(small_font_disp@ptr+1),f
	line	132
	
l9724:	
	decf	(small_font_disp@length),f
	movf	((small_font_disp@length)),w
	xorlw	0FFh
	skipz
	goto	u2571
	goto	u2570
u2571:
	goto	l9692
u2570:
	line	145
	
l3331:	
	return
	opt stack 0
GLOBAL	__end_of_small_font_disp
	__end_of_small_font_disp:
;; =============== function _small_font_disp ends ============

	signat	_small_font_disp,12408
	global	_get_font_5X7
psect	text948,local,class=CODE,delta=2
global __ptext948
__ptext948:

;; *************** function _get_font_5X7 *****************
;; Defined at:
;;		line 315 in file "C:\Users\ranjan\Desktop\matrix\font.c"
;; Parameters:    Size  Location     Type
;;  byte            1    wreg     unsigned char 
;; Auto vars:     Size  Location     Type
;;  byte            1   25[BANK0 ] unsigned char 
;;  pos             2   26[BANK0 ] unsigned int 
;; Return value:  Size  Location     Type
;;                  2    wreg      PTR unsigned char 
;; Registers used:
;;		wreg, status,2, status,0, pclath, cstack
;; Tracked objects:
;;		On entry : 60/0
;;		On exit  : 60/0
;;		Unchanged: FFF9F/0
;; Data sizes:     COMMON   BANK0   BANK1   BANK3   BANK2
;;      Params:         0       0       0       0       0
;;      Locals:         0       3       0       0       0
;;      Temps:          0       4       0       0       0
;;      Totals:         0       7       0       0       0
;;Total ram usage:        7 bytes
;; Hardware stack levels used:    1
;; Hardware stack levels required when called:    5
;; This function calls:
;;		___wmul
;; This function is called by:
;;		_small_font_disp
;; This function uses a non-reentrant model
;;
psect	text948
	file	"C:\Users\ranjan\Desktop\matrix\font.c"
	line	315
	global	__size_of_get_font_5X7
	__size_of_get_font_5X7	equ	__end_of_get_font_5X7-_get_font_5X7
	
_get_font_5X7:	
	opt	stack 0
; Regs used in _get_font_5X7: [wreg+status,2+status,0+pclath+cstack]
;get_font_5X7@byte stored from wreg
	movwf	(get_font_5X7@byte)
	line	316
	
l9680:	
;font.c: 316: unsigned int pos=(byte-32);
	movf	(get_font_5X7@byte),w
	movwf	(get_font_5X7@pos)
	clrf	(get_font_5X7@pos+1)
	
l9682:	
	movlw	-32
	addwf	(get_font_5X7@pos),f
	skipc
	decf	(get_font_5X7@pos+1),f
	line	317
	
l9684:	
;font.c: 317: pos*=5;
	movlw	05h
	movwf	(?___wmul)
	clrf	(?___wmul+1)
	movf	(get_font_5X7@pos+1),w
	movwf	1+(?___wmul)+02h
	movf	(get_font_5X7@pos),w
	movwf	0+(?___wmul)+02h
	fcall	___wmul
	movf	(1+(?___wmul)),w
	movwf	(get_font_5X7@pos+1)
	movf	(0+(?___wmul)),w
	movwf	(get_font_5X7@pos)
	line	318
	
l9686:	
;font.c: 318: return (unsigned char*)(&font_5X7[pos]);
	movlw	low(_font_5X7|8000h)
	movwf	(??_get_font_5X7+0)+0
	movlw	high(_font_5X7|8000h)
	movwf	(??_get_font_5X7+0)+0+1
	movf	(get_font_5X7@pos),w
	addwf	0+(??_get_font_5X7+0)+0,w
	movwf	(??_get_font_5X7+2)+0
	movf	(get_font_5X7@pos+1),w
	skipnc
	incf	(get_font_5X7@pos+1),w
	addwf	1+(??_get_font_5X7+0)+0,w
	movwf	1+(??_get_font_5X7+2)+0
	movf	0+(??_get_font_5X7+2)+0,w
	movwf	(?_get_font_5X7)
	movf	1+(??_get_font_5X7+2)+0,w
	movwf	(?_get_font_5X7+1)
	line	319
	
l3363:	
	return
	opt stack 0
GLOBAL	__end_of_get_font_5X7
	__end_of_get_font_5X7:
;; =============== function _get_font_5X7 ends ============

	signat	_get_font_5X7,4217
	global	_get_Arial_Rounded_MT_Bold15x16
psect	text949,local,class=CODE,delta=2
global __ptext949
__ptext949:

;; *************** function _get_Arial_Rounded_MT_Bold15x16 *****************
;; Defined at:
;;		line 1185 in file "C:\Users\ranjan\Desktop\matrix\font.c"
;; Parameters:    Size  Location     Type
;;  byte            1    wreg     unsigned char 
;; Auto vars:     Size  Location     Type
;;  byte            1   25[BANK0 ] unsigned char 
;;  pos             2   26[BANK0 ] unsigned int 
;; Return value:  Size  Location     Type
;;                  2    wreg      PTR unsigned char 
;; Registers used:
;;		wreg, status,2, status,0, pclath, cstack
;; Tracked objects:
;;		On entry : 60/100
;;		On exit  : 60/100
;;		Unchanged: FFF9F/0
;; Data sizes:     COMMON   BANK0   BANK1   BANK3   BANK2
;;      Params:         0       0       0       0       0
;;      Locals:         0       3       0       0       0
;;      Temps:          0       4       0       0       0
;;      Totals:         0       7       0       0       0
;;Total ram usage:        7 bytes
;; Hardware stack levels used:    1
;; Hardware stack levels required when called:    5
;; This function calls:
;;		___wmul
;; This function is called by:
;;		_charUpdate
;; This function uses a non-reentrant model
;;
psect	text949
	file	"C:\Users\ranjan\Desktop\matrix\font.c"
	line	1185
	global	__size_of_get_Arial_Rounded_MT_Bold15x16
	__size_of_get_Arial_Rounded_MT_Bold15x16	equ	__end_of_get_Arial_Rounded_MT_Bold15x16-_get_Arial_Rounded_MT_Bold15x16
	
_get_Arial_Rounded_MT_Bold15x16:	
	opt	stack 1
; Regs used in _get_Arial_Rounded_MT_Bold15x16: [wreg+status,2+status,0+pclath+cstack]
;get_Arial_Rounded_MT_Bold15x16@byte stored from wreg
	movwf	(get_Arial_Rounded_MT_Bold15x16@byte)
	line	1186
	
l9670:	
;font.c: 1186: unsigned int pos=(byte-32);
	movf	(get_Arial_Rounded_MT_Bold15x16@byte),w
	movwf	(get_Arial_Rounded_MT_Bold15x16@pos)
	clrf	(get_Arial_Rounded_MT_Bold15x16@pos+1)
	
l9672:	
	movlw	-32
	addwf	(get_Arial_Rounded_MT_Bold15x16@pos),f
	skipc
	decf	(get_Arial_Rounded_MT_Bold15x16@pos+1),f
	line	1187
	
l9674:	
;font.c: 1187: pos*=39;
	movlw	027h
	movwf	(?___wmul)
	clrf	(?___wmul+1)
	movf	(get_Arial_Rounded_MT_Bold15x16@pos+1),w
	movwf	1+(?___wmul)+02h
	movf	(get_Arial_Rounded_MT_Bold15x16@pos),w
	movwf	0+(?___wmul)+02h
	fcall	___wmul
	movf	(1+(?___wmul)),w
	movwf	(get_Arial_Rounded_MT_Bold15x16@pos+1)
	movf	(0+(?___wmul)),w
	movwf	(get_Arial_Rounded_MT_Bold15x16@pos)
	line	1188
	
l9676:	
;font.c: 1188: return (unsigned char*)(&Arial_Rounded_MT_Bold20x16[pos]);
	movlw	low(_Arial_Rounded_MT_Bold20x16|8000h)
	movwf	(??_get_Arial_Rounded_MT_Bold15x16+0)+0
	movlw	high(_Arial_Rounded_MT_Bold20x16|8000h)
	movwf	(??_get_Arial_Rounded_MT_Bold15x16+0)+0+1
	movf	(get_Arial_Rounded_MT_Bold15x16@pos),w
	addwf	0+(??_get_Arial_Rounded_MT_Bold15x16+0)+0,w
	movwf	(??_get_Arial_Rounded_MT_Bold15x16+2)+0
	movf	(get_Arial_Rounded_MT_Bold15x16@pos+1),w
	skipnc
	incf	(get_Arial_Rounded_MT_Bold15x16@pos+1),w
	addwf	1+(??_get_Arial_Rounded_MT_Bold15x16+0)+0,w
	movwf	1+(??_get_Arial_Rounded_MT_Bold15x16+2)+0
	movf	0+(??_get_Arial_Rounded_MT_Bold15x16+2)+0,w
	movwf	(?_get_Arial_Rounded_MT_Bold15x16)
	movf	1+(??_get_Arial_Rounded_MT_Bold15x16+2)+0,w
	movwf	(?_get_Arial_Rounded_MT_Bold15x16+1)
	line	1189
	
l3366:	
	return
	opt stack 0
GLOBAL	__end_of_get_Arial_Rounded_MT_Bold15x16
	__end_of_get_Arial_Rounded_MT_Bold15x16:
;; =============== function _get_Arial_Rounded_MT_Bold15x16 ends ============

	signat	_get_Arial_Rounded_MT_Bold15x16,4217
	global	_eeprom_str_write
psect	text950,local,class=CODE,delta=2
global __ptext950
__ptext950:

;; *************** function _eeprom_str_write *****************
;; Defined at:
;;		line 5 in file "C:\Users\ranjan\Desktop\matrix\eeprom.c"
;; Parameters:    Size  Location     Type
;;  ptr             2   17[BANK0 ] PTR unsigned char 
;;		 -> STR_8(32), STR_6(9), STR_5(9), keybrdInput@display_str(1), 
;;  address         1   19[BANK0 ] unsigned char 
;;  length          1   20[BANK0 ] unsigned char 
;; Auto vars:     Size  Location     Type
;;  i               1   21[BANK0 ] unsigned char 
;; Return value:  Size  Location     Type
;;		None               void
;; Registers used:
;;		wreg, fsr0l, fsr0h, status,2, status,0, btemp+1, pclath, cstack
;; Tracked objects:
;;		On entry : 60/0
;;		On exit  : 60/0
;;		Unchanged: FFE9F/0
;; Data sizes:     COMMON   BANK0   BANK1   BANK3   BANK2
;;      Params:         0       4       0       0       0
;;      Locals:         0       1       0       0       0
;;      Temps:          0       0       0       0       0
;;      Totals:         0       5       0       0       0
;;Total ram usage:        5 bytes
;; Hardware stack levels used:    1
;; Hardware stack levels required when called:    5
;; This function calls:
;;		_eeprom_write
;; This function is called by:
;;		_keybrdInput
;;		_main
;; This function uses a non-reentrant model
;;
psect	text950
	file	"C:\Users\ranjan\Desktop\matrix\eeprom.c"
	line	5
	global	__size_of_eeprom_str_write
	__size_of_eeprom_str_write	equ	__end_of_eeprom_str_write-_eeprom_str_write
	
_eeprom_str_write:	
	opt	stack 1
; Regs used in _eeprom_str_write: [wreg-fsr0h+status,2+status,0+btemp+1+pclath+cstack]
	line	6
	
l9314:	
;eeprom.c: 6: unsigned char i=0;
	clrf	(eeprom_str_write@i)
	line	7
;eeprom.c: 7: while(i!=length)
	goto	l9320
	line	9
	
l9316:	
;eeprom.c: 8: {
;eeprom.c: 9: eeprom_write(address+i,*(ptr+i));
	movf	(eeprom_str_write@i),w
	addwf	(eeprom_str_write@ptr),w
	movwf	fsr0
	movf	(eeprom_str_write@ptr+1),w
	skipnc
	incf	(eeprom_str_write@ptr+1),w
	movwf	btemp+1
	fcall	stringtab
	movwf	(?_eeprom_write)
	movf	(eeprom_str_write@i),w
	addwf	(eeprom_str_write@address),w
	fcall	_eeprom_write
	line	10
	
l9318:	
;eeprom.c: 10: i++;
	bcf	status, 5	;RP0=0, select bank0
	bcf	status, 6	;RP1=0, select bank0
	incf	(eeprom_str_write@i),f
	line	7
	
l9320:	
	movf	(eeprom_str_write@i),w
	xorwf	(eeprom_str_write@length),w
	skipz
	goto	u2161
	goto	u2160
u2161:
	goto	l9316
u2160:
	line	12
	
l4398:	
	return
	opt stack 0
GLOBAL	__end_of_eeprom_str_write
	__end_of_eeprom_str_write:
;; =============== function _eeprom_str_write ends ============

	signat	_eeprom_str_write,12408
	global	_eeprom_str_read
psect	text951,local,class=CODE,delta=2
global __ptext951
__ptext951:

;; *************** function _eeprom_str_read *****************
;; Defined at:
;;		line 14 in file "C:\Users\ranjan\Desktop\matrix\eeprom.c"
;; Parameters:    Size  Location     Type
;;  ptr             1    wreg     PTR unsigned char 
;;		 -> keybrdInput@display_str(1), 
;;  address         1   16[BANK0 ] unsigned char 
;;  length          1   17[BANK0 ] unsigned char 
;; Auto vars:     Size  Location     Type
;;  ptr             1   19[BANK0 ] PTR unsigned char 
;;		 -> keybrdInput@display_str(1), 
;;  i               1   20[BANK0 ] unsigned char 
;; Return value:  Size  Location     Type
;;		None               void
;; Registers used:
;;		wreg, fsr0l, fsr0h, status,2, status,0, pclath, cstack
;; Tracked objects:
;;		On entry : 60/0
;;		On exit  : 60/0
;;		Unchanged: FFE00/0
;; Data sizes:     COMMON   BANK0   BANK1   BANK3   BANK2
;;      Params:         0       2       0       0       0
;;      Locals:         0       2       0       0       0
;;      Temps:          0       1       0       0       0
;;      Totals:         0       5       0       0       0
;;Total ram usage:        5 bytes
;; Hardware stack levels used:    1
;; Hardware stack levels required when called:    5
;; This function calls:
;;		_eeprom_read
;; This function is called by:
;;		_keybrdInput
;; This function uses a non-reentrant model
;;
psect	text951
	file	"C:\Users\ranjan\Desktop\matrix\eeprom.c"
	line	14
	global	__size_of_eeprom_str_read
	__size_of_eeprom_str_read	equ	__end_of_eeprom_str_read-_eeprom_str_read
	
_eeprom_str_read:	
	opt	stack 1
; Regs used in _eeprom_str_read: [wreg-fsr0h+status,2+status,0+pclath+cstack]
;eeprom_str_read@ptr stored from wreg
	movwf	(eeprom_str_read@ptr)
	line	15
	
l9306:	
;eeprom.c: 15: unsigned char i=0;
	clrf	(eeprom_str_read@i)
	line	16
;eeprom.c: 16: while(i!=length)
	goto	l9312
	line	18
	
l9308:	
;eeprom.c: 17: {
;eeprom.c: 18: *(ptr+i)=eeprom_read(address+i);
	movf	(eeprom_str_read@i),w
	addwf	(eeprom_str_read@ptr),w
	movwf	(??_eeprom_str_read+0)+0
	movf	0+(??_eeprom_str_read+0)+0,w
	movwf	fsr0
	movf	(eeprom_str_read@i),w
	addwf	(eeprom_str_read@address),w
	fcall	_eeprom_read
	bcf	status, 7	;select IRP bank0
	movwf	indf
	line	19
	
l9310:	
;eeprom.c: 19: i++;
	bcf	status, 6	;RP1=0, select bank0
	incf	(eeprom_str_read@i),f
	line	16
	
l9312:	
	movf	(eeprom_str_read@i),w
	xorwf	(eeprom_str_read@length),w
	skipz
	goto	u2151
	goto	u2150
u2151:
	goto	l9308
u2150:
	line	21
	
l4404:	
	return
	opt stack 0
GLOBAL	__end_of_eeprom_str_read
	__end_of_eeprom_str_read:
;; =============== function _eeprom_str_read ends ============

	signat	_eeprom_str_read,12408
	global	_refresh_display
psect	text952,local,class=CODE,delta=2
global __ptext952
__ptext952:

;; *************** function _refresh_display *****************
;; Defined at:
;;		line 32 in file "C:\Users\ranjan\Desktop\matrix\LDM.c"
;; Parameters:    Size  Location     Type
;;		None
;; Auto vars:     Size  Location     Type
;;  i               1   22[BANK0 ] unsigned char 
;; Return value:  Size  Location     Type
;;		None               void
;; Registers used:
;;		wreg, fsr0l, fsr0h, status,2, status,0, pclath, cstack
;; Tracked objects:
;;		On entry : 60/0
;;		On exit  : 0/0
;;		Unchanged: 0/0
;; Data sizes:     COMMON   BANK0   BANK1   BANK3   BANK2
;;      Params:         0       0       0       0       0
;;      Locals:         0       1       0       0       0
;;      Temps:          0       2       0       0       0
;;      Totals:         0       3       0       0       0
;;Total ram usage:        3 bytes
;; Hardware stack levels used:    1
;; Hardware stack levels required when called:    5
;; This function calls:
;;		_putRowData
;; This function is called by:
;;		_keybrdInput
;; This function uses a non-reentrant model
;;
psect	text952
	file	"C:\Users\ranjan\Desktop\matrix\LDM.c"
	line	32
	global	__size_of_refresh_display
	__size_of_refresh_display	equ	__end_of_refresh_display-_refresh_display
	
_refresh_display:	
	opt	stack 1
; Regs used in _refresh_display: [wreg-fsr0h+status,2+status,0+pclath+cstack]
	line	33
	
l9256:	
;LDM.c: 33: unsigned char i=31;
	movlw	(01Fh)
	movwf	(refresh_display@i)
	line	35
	
l9258:	
;LDM.c: 35: RD2 = 0;
	bcf	(66/8),(66)&7
	line	36
	
l9260:	
;LDM.c: 36: RD2 = 1;
	bsf	(66/8),(66)&7
	line	37
	
l9262:	
;LDM.c: 37: RC1 = RC2 = 1;
	bsf	(58/8),(58)&7
	btfsc	(58/8),(58)&7
	goto	u2121
	goto	u2120
	
u2121:
	bcf	status, 5	;RP0=0, select bank0
	bcf	status, 6	;RP1=0, select bank0
	bsf	(57/8),(57)&7
	goto	u2134
u2120:
	bcf	status, 5	;RP0=0, select bank0
	bcf	status, 6	;RP1=0, select bank0
	bcf	(57/8),(57)&7
u2134:
	line	38
	
l9264:	
;LDM.c: 38: RD7 = 0;
	bcf	(71/8),(71)&7
	line	39
	
l9266:	
;LDM.c: 39: RD1 = 1;
	bsf	(65/8),(65)&7
	line	40
	
l9268:	
;LDM.c: 40: putRowData(dispRam1[i], dispRam2[i]);
	bsf	status, 5	;RP0=1, select bank3
	bsf	status, 6	;RP1=1, select bank3
	movf	1+(_dispRam1)^0180h+03Eh,w
	bcf	status, 5	;RP0=0, select bank0
	bcf	status, 6	;RP1=0, select bank0
	movwf	(?_putRowData+1)
	bsf	status, 5	;RP0=1, select bank3
	bsf	status, 6	;RP1=1, select bank3
	movf	0+(_dispRam1)^0180h+03Eh,w
	bcf	status, 5	;RP0=0, select bank0
	bcf	status, 6	;RP1=0, select bank0
	movwf	(?_putRowData)
	bsf	status, 5	;RP0=1, select bank1
	movf	1+(_dispRam2)^080h+03Eh,w
	bcf	status, 5	;RP0=0, select bank0
	movwf	1+(?_putRowData)+02h
	bsf	status, 5	;RP0=1, select bank1
	movf	0+(_dispRam2)^080h+03Eh,w
	bcf	status, 5	;RP0=0, select bank0
	movwf	0+(?_putRowData)+02h
	fcall	_putRowData
	line	41
	
l9270:	
;LDM.c: 41: RD6 = 0;
	bcf	(70/8),(70)&7
	line	42
	
l9272:	
;LDM.c: 42: RD6 = 1;
	bsf	(70/8),(70)&7
	line	43
	
l9274:	
;LDM.c: 43: i--;
	decf	(refresh_display@i),f
	line	46
	
l9276:	
;LDM.c: 45: {
;LDM.c: 46: RD3 =0;
	bcf	(67/8),(67)&7
	line	47
	
l9278:	
;LDM.c: 47: RD3 =1;
	bsf	(67/8),(67)&7
	line	48
	
l9280:	
;LDM.c: 48: RD0 = 0;
	bcf	(64/8),(64)&7
	line	49
	
l9282:	
;LDM.c: 49: RD0 = 1;
	bsf	(64/8),(64)&7
	line	51
	
l9284:	
;LDM.c: 51: RD1 = 0;
	bcf	(65/8),(65)&7
	line	52
	
l9286:	
;LDM.c: 52: if(i==0xFF) break;
	movf	(refresh_display@i),w
	xorlw	0FFh
	skipz
	goto	u2141
	goto	u2140
u2141:
	goto	l9290
u2140:
	goto	l9304
	line	53
	
l9290:	
;LDM.c: 53: _delay((unsigned long)((600)*(20000000/4000000.0)));
	opt asmopt_off
movlw	4
movwf	((??_refresh_display+0)+0+1),f
	movlw	228
movwf	((??_refresh_display+0)+0),f
u2877:
	decfsz	((??_refresh_display+0)+0),f
	goto	u2877
	decfsz	((??_refresh_display+0)+0+1),f
	goto	u2877
	clrwdt
opt asmopt_on

	line	54
	
l9292:	
;LDM.c: 54: putRowData(dispRam1[i], dispRam2[i]);
	bcf	status, 5	;RP0=0, select bank0
	bcf	status, 6	;RP1=0, select bank0
	clrc
	rlf	(refresh_display@i),w
	addlw	_dispRam1&0ffh
	movwf	fsr0
	bsf	status, 7	;select IRP bank3
	movf	indf,w
	movwf	(?_putRowData)
	incf	fsr0,f
	movf	indf,w
	movwf	(?_putRowData+1)
	clrc
	rlf	(refresh_display@i),w
	addlw	_dispRam2&0ffh
	movwf	fsr0
	bcf	status, 7	;select IRP bank1
	movf	indf,w
	movwf	0+(?_putRowData)+02h
	incf	fsr0,f
	movf	indf,w
	movwf	1+(?_putRowData)+02h
	fcall	_putRowData
	line	55
	
l9294:	
;LDM.c: 55: i--;
	decf	(refresh_display@i),f
	line	56
	
l9296:	
;LDM.c: 56: RC1 = RC2 = 0;
	bcf	(58/8),(58)&7
	bcf	(57/8),(57)&7
	line	57
	
l9298:	
;LDM.c: 57: RD1 = 1;
	bsf	(65/8),(65)&7
	line	58
	
l9300:	
;LDM.c: 58: RD6 = 0;
	bcf	(70/8),(70)&7
	line	59
	
l9302:	
;LDM.c: 59: RD6 = 1;
	bsf	(70/8),(70)&7
	line	60
;LDM.c: 60: }
	goto	l9276
	line	61
	
l9304:	
;LDM.c: 61: _delay((unsigned long)((600)*(20000000/4000000.0)));
	opt asmopt_off
movlw	4
movwf	((??_refresh_display+0)+0+1),f
	movlw	228
movwf	((??_refresh_display+0)+0),f
u2887:
	decfsz	((??_refresh_display+0)+0),f
	goto	u2887
	decfsz	((??_refresh_display+0)+0+1),f
	goto	u2887
	clrwdt
opt asmopt_on

	line	62
	
l3299:	
	return
	opt stack 0
GLOBAL	__end_of_refresh_display
	__end_of_refresh_display:
;; =============== function _refresh_display ends ============

	signat	_refresh_display,88
	global	_clr_disp
psect	text953,local,class=CODE,delta=2
global __ptext953
__ptext953:

;; *************** function _clr_disp *****************
;; Defined at:
;;		line 158 in file "C:\Users\ranjan\Desktop\matrix\LDM.c"
;; Parameters:    Size  Location     Type
;;		None
;; Auto vars:     Size  Location     Type
;;		None
;; Return value:  Size  Location     Type
;;		None               void
;; Registers used:
;;		wreg, fsr0l, fsr0h, status,2, status,0, pclath, cstack
;; Tracked objects:
;;		On entry : 60/0
;;		On exit  : 60/0
;;		Unchanged: FFE9F/0
;; Data sizes:     COMMON   BANK0   BANK1   BANK3   BANK2
;;      Params:         0       0       0       0       0
;;      Locals:         0       0       0       0       0
;;      Temps:          0       0       0       0       0
;;      Totals:         0       0       0       0       0
;;Total ram usage:        0 bytes
;; Hardware stack levels used:    1
;; Hardware stack levels required when called:    5
;; This function calls:
;;		__memset
;; This function is called by:
;;		_keybrdInput
;;		_main
;; This function uses a non-reentrant model
;;
psect	text953
	file	"C:\Users\ranjan\Desktop\matrix\LDM.c"
	line	158
	global	__size_of_clr_disp
	__size_of_clr_disp	equ	__end_of_clr_disp-_clr_disp
	
_clr_disp:	
	opt	stack 1
; Regs used in _clr_disp: [wreg-fsr0h+status,2+status,0+pclath+cstack]
	line	159
	
l9254:	
;LDM.c: 159: _memset((unsigned char *)dispRam1,0x00,sizeof(dispRam1));
	movlw	(_dispRam1&0ffh)
	movwf	(?__memset)
	movlw	(0x3/2)
	movwf	(?__memset+1)
	clrf	0+(?__memset)+02h
	movlw	040h
	movwf	0+(?__memset)+03h
	clrf	1+(?__memset)+03h
	fcall	__memset
	line	160
;LDM.c: 160: _memset((unsigned char *)dispRam2,0x00,sizeof(dispRam2));
	movlw	(_dispRam2&0ffh)
	movwf	(?__memset)
	movlw	(0x1/2)
	movwf	(?__memset+1)
	clrf	0+(?__memset)+02h
	movlw	040h
	movwf	0+(?__memset)+03h
	clrf	1+(?__memset)+03h
	fcall	__memset
	line	161
	
l3344:	
	return
	opt stack 0
GLOBAL	__end_of_clr_disp
	__end_of_clr_disp:
;; =============== function _clr_disp ends ============

	signat	_clr_disp,88
	global	_put_cursor
psect	text954,local,class=CODE,delta=2
global __ptext954
__ptext954:

;; *************** function _put_cursor *****************
;; Defined at:
;;		line 352 in file "C:\Users\ranjan\Desktop\matrix\ps2_kbd.c"
;; Parameters:    Size  Location     Type
;;  loc             1    wreg     unsigned char 
;; Auto vars:     Size  Location     Type
;;  loc             1   21[BANK0 ] unsigned char 
;;  font_data       2   18[BANK0 ] unsigned int 
;;  i               1   20[BANK0 ] unsigned char 
;; Return value:  Size  Location     Type
;;		None               void
;; Registers used:
;;		wreg, fsr0l, fsr0h, status,2, status,0, pclath, cstack
;; Tracked objects:
;;		On entry : 60/0
;;		On exit  : 60/0
;;		Unchanged: FFE9F/0
;; Data sizes:     COMMON   BANK0   BANK1   BANK3   BANK2
;;      Params:         0       0       0       0       0
;;      Locals:         0       4       0       0       0
;;      Temps:          0       0       0       0       0
;;      Totals:         0       4       0       0       0
;;Total ram usage:        4 bytes
;; Hardware stack levels used:    1
;; Hardware stack levels required when called:    5
;; This function calls:
;;		___bmul
;;		_fillRAM
;; This function is called by:
;;		_keybrdInput
;; This function uses a non-reentrant model
;;
psect	text954
	file	"C:\Users\ranjan\Desktop\matrix\ps2_kbd.c"
	line	352
	global	__size_of_put_cursor
	__size_of_put_cursor	equ	__end_of_put_cursor-_put_cursor
	
_put_cursor:	
	opt	stack 1
; Regs used in _put_cursor: [wreg-fsr0h+status,2+status,0+pclath+cstack]
;put_cursor@loc stored from wreg
	movwf	(put_cursor@loc)
	line	353
	
l9232:	
	line	354
	
l9234:	
;ps2_kbd.c: 354: unsigned int font_data=0x8000;
	movlw	low(08000h)
	movwf	(put_cursor@font_data)
	movlw	high(08000h)
	movwf	((put_cursor@font_data))+1
	line	356
	
l9236:	
;ps2_kbd.c: 356: loc*=6;
	movf	(put_cursor@loc),w
	movwf	(?___bmul)
	movlw	(06h)
	fcall	___bmul
	movwf	(put_cursor@loc)
	line	357
	
l9238:	
;ps2_kbd.c: 357: for(i=0; i<5; i++,loc++)
	clrf	(put_cursor@i)
	line	361
	
l9244:	
;ps2_kbd.c: 358: {
;ps2_kbd.c: 361: fillRAM(loc, font_data);
	movf	(put_cursor@font_data+1),w
	movwf	(?_fillRAM+1)
	movf	(put_cursor@font_data),w
	movwf	(?_fillRAM)
	movf	(put_cursor@loc),w
	fcall	_fillRAM
	line	357
	
l9246:	
	incf	(put_cursor@i),f
	
l9248:	
	incf	(put_cursor@loc),f
	
l9250:	
	movlw	(05h)
	subwf	(put_cursor@i),w
	skipc
	goto	u2111
	goto	u2110
u2111:
	goto	l9244
u2110:
	line	363
	
l9252:	
;ps2_kbd.c: 362: }
;ps2_kbd.c: 363: fillRAM(loc, 0);
	clrf	(?_fillRAM)
	clrf	(?_fillRAM+1)
	movf	(put_cursor@loc),w
	fcall	_fillRAM
	line	364
	
l1123:	
	return
	opt stack 0
GLOBAL	__end_of_put_cursor
	__end_of_put_cursor:
;; =============== function _put_cursor ends ============

	signat	_put_cursor,4216
	global	___wmul
psect	text955,local,class=CODE,delta=2
global __ptext955
__ptext955:

;; *************** function ___wmul *****************
;; Defined at:
;;		line 3 in file "C:\Program Files\HI-TECH Software\PICC\9.83\sources\wmul.c"
;; Parameters:    Size  Location     Type
;;  multiplier      2   15[BANK0 ] unsigned int 
;;  multiplicand    2   17[BANK0 ] unsigned int 
;; Auto vars:     Size  Location     Type
;;  product         2   19[BANK0 ] unsigned int 
;; Return value:  Size  Location     Type
;;                  2   15[BANK0 ] unsigned int 
;; Registers used:
;;		wreg, status,2, status,0
;; Tracked objects:
;;		On entry : 60/0
;;		On exit  : 60/0
;;		Unchanged: FFF9F/0
;; Data sizes:     COMMON   BANK0   BANK1   BANK3   BANK2
;;      Params:         0       4       0       0       0
;;      Locals:         0       2       0       0       0
;;      Temps:          0       0       0       0       0
;;      Totals:         0       6       0       0       0
;;Total ram usage:        6 bytes
;; Hardware stack levels used:    1
;; Hardware stack levels required when called:    4
;; This function calls:
;;		Nothing
;; This function is called by:
;;		_get_font_5X7
;;		_get_Arial_Rounded_MT_Bold15x16
;; This function uses a non-reentrant model
;;
psect	text955
	file	"C:\Program Files\HI-TECH Software\PICC\9.83\sources\wmul.c"
	line	3
	global	__size_of___wmul
	__size_of___wmul	equ	__end_of___wmul-___wmul
	
___wmul:	
	opt	stack 0
; Regs used in ___wmul: [wreg+status,2+status,0]
	line	4
	
l9654:	
	clrf	(___wmul@product)
	clrf	(___wmul@product+1)
	line	7
	
l9656:	
	btfss	(___wmul@multiplier),(0)&7
	goto	u2511
	goto	u2510
u2511:
	goto	l9660
u2510:
	line	8
	
l9658:	
	movf	(___wmul@multiplicand),w
	addwf	(___wmul@product),f
	skipnc
	incf	(___wmul@product+1),f
	movf	(___wmul@multiplicand+1),w
	addwf	(___wmul@product+1),f
	line	9
	
l9660:	
	clrc
	rlf	(___wmul@multiplicand),f
	rlf	(___wmul@multiplicand+1),f
	line	10
	
l9662:	
	clrc
	rrf	(___wmul@multiplier+1),f
	rrf	(___wmul@multiplier),f
	line	11
	
l9664:	
	movf	((___wmul@multiplier+1)),w
	iorwf	((___wmul@multiplier)),w
	skipz
	goto	u2521
	goto	u2520
u2521:
	goto	l9656
u2520:
	line	12
	
l9666:	
	movf	(___wmul@product+1),w
	movwf	(?___wmul+1)
	movf	(___wmul@product),w
	movwf	(?___wmul)
	line	13
	
l7247:	
	return
	opt stack 0
GLOBAL	__end_of___wmul
	__end_of___wmul:
;; =============== function ___wmul ends ============

	signat	___wmul,8314
	global	___bmul
psect	text956,local,class=CODE,delta=2
global __ptext956
__ptext956:

;; *************** function ___bmul *****************
;; Defined at:
;;		line 3 in file "C:\Program Files\HI-TECH Software\PICC\9.83\sources\bmul.c"
;; Parameters:    Size  Location     Type
;;  multiplier      1    wreg     unsigned char 
;;  multiplicand    1   15[BANK0 ] unsigned char 
;; Auto vars:     Size  Location     Type
;;  multiplier      1   17[BANK0 ] unsigned char 
;;  product         1   16[BANK0 ] unsigned char 
;; Return value:  Size  Location     Type
;;                  1    wreg      unsigned char 
;; Registers used:
;;		wreg, status,2, status,0
;; Tracked objects:
;;		On entry : 60/0
;;		On exit  : 60/0
;;		Unchanged: FFF9F/0
;; Data sizes:     COMMON   BANK0   BANK1   BANK3   BANK2
;;      Params:         0       1       0       0       0
;;      Locals:         0       2       0       0       0
;;      Temps:          0       0       0       0       0
;;      Totals:         0       3       0       0       0
;;Total ram usage:        3 bytes
;; Hardware stack levels used:    1
;; Hardware stack levels required when called:    4
;; This function calls:
;;		Nothing
;; This function is called by:
;;		_put_cursor
;; This function uses a non-reentrant model
;;
psect	text956
	file	"C:\Program Files\HI-TECH Software\PICC\9.83\sources\bmul.c"
	line	3
	global	__size_of___bmul
	__size_of___bmul	equ	__end_of___bmul-___bmul
	
___bmul:	
	opt	stack 1
; Regs used in ___bmul: [wreg+status,2+status,0]
;___bmul@multiplier stored from wreg
	movwf	(___bmul@multiplier)
	line	4
	
l9056:	
	clrf	(___bmul@product)
	line	7
	
l9058:	
	btfss	(___bmul@multiplier),(0)&7
	goto	u1891
	goto	u1890
u1891:
	goto	l9062
u1890:
	line	8
	
l9060:	
	movf	(___bmul@multiplicand),w
	addwf	(___bmul@product),f
	line	9
	
l9062:	
	clrc
	rlf	(___bmul@multiplicand),f
	line	10
	
l9064:	
	clrc
	rrf	(___bmul@multiplier),f
	line	11
	
l9066:	
	movf	(___bmul@multiplier),f
	skipz
	goto	u1901
	goto	u1900
u1901:
	goto	l9058
u1900:
	line	12
	
l9068:	
	movf	(___bmul@product),w
	line	13
	
l7241:	
	return
	opt stack 0
GLOBAL	__end_of___bmul
	__end_of___bmul:
;; =============== function ___bmul ends ============

	signat	___bmul,8313
	global	_putRowData
psect	text957,local,class=CODE,delta=2
global __ptext957
__ptext957:

;; *************** function _putRowData *****************
;; Defined at:
;;		line 15 in file "C:\Users\ranjan\Desktop\matrix\LDM.c"
;; Parameters:    Size  Location     Type
;;  data1           2   15[BANK0 ] unsigned int 
;;  data2           2   17[BANK0 ] unsigned int 
;; Auto vars:     Size  Location     Type
;;  i               1   19[BANK0 ] unsigned char 
;; Return value:  Size  Location     Type
;;		None               void
;; Registers used:
;;		wreg, status,2, status,0
;; Tracked objects:
;;		On entry : 60/0
;;		On exit  : 60/0
;;		Unchanged: FFE00/0
;; Data sizes:     COMMON   BANK0   BANK1   BANK3   BANK2
;;      Params:         0       4       0       0       0
;;      Locals:         0       1       0       0       0
;;      Temps:          0       0       0       0       0
;;      Totals:         0       5       0       0       0
;;Total ram usage:        5 bytes
;; Hardware stack levels used:    1
;; Hardware stack levels required when called:    4
;; This function calls:
;;		Nothing
;; This function is called by:
;;		_refresh_display
;; This function uses a non-reentrant model
;;
psect	text957
	file	"C:\Users\ranjan\Desktop\matrix\LDM.c"
	line	15
	global	__size_of_putRowData
	__size_of_putRowData	equ	__end_of_putRowData-_putRowData
	
_putRowData:	
	opt	stack 1
; Regs used in _putRowData: [wreg+status,2+status,0]
	line	16
	
l9036:	
	line	18
	
l9038:	
;LDM.c: 18: RD4 = 0;
	bcf	(68/8),(68)&7
	line	19
	
l9040:	
;LDM.c: 19: RD4 = 1;
	bsf	(68/8),(68)&7
	line	20
;LDM.c: 20: for(i=0; i<=15; i++)
	clrf	(putRowData@i)
	line	21
	
l3291:	
	line	22
;LDM.c: 21: {
;LDM.c: 22: RC3=(data1&0x0001) ? 1:0; data1>>=1;
	btfsc	(putRowData@data1),(0)&7
	goto	u1841
	goto	u1840
	
u1841:
	bcf	status, 5	;RP0=0, select bank0
	bcf	status, 6	;RP1=0, select bank0
	bsf	(59/8),(59)&7
	goto	u1854
u1840:
	bcf	status, 5	;RP0=0, select bank0
	bcf	status, 6	;RP1=0, select bank0
	bcf	(59/8),(59)&7
u1854:
	
l9046:	
	clrc
	rrf	(putRowData@data1+1),f
	rrf	(putRowData@data1),f
	line	23
	
l9048:	
;LDM.c: 23: RC0=(data2&0x0001) ? 1:0; data2>>=1;
	btfsc	(putRowData@data2),(0)&7
	goto	u1861
	goto	u1860
	
u1861:
	bcf	status, 5	;RP0=0, select bank0
	bcf	status, 6	;RP1=0, select bank0
	bsf	(56/8),(56)&7
	goto	u1874
u1860:
	bcf	status, 5	;RP0=0, select bank0
	bcf	status, 6	;RP1=0, select bank0
	bcf	(56/8),(56)&7
u1874:
	clrc
	rrf	(putRowData@data2+1),f
	rrf	(putRowData@data2),f
	line	24
	
l9050:	
;LDM.c: 24: RD5 = 0;
	bcf	(69/8),(69)&7
	line	25
	
l9052:	
;LDM.c: 25: RD5 = 1;
	bsf	(69/8),(69)&7
	line	20
	incf	(putRowData@i),f
	
l9054:	
	movlw	(010h)
	subwf	(putRowData@i),w
	skipc
	goto	u1881
	goto	u1880
u1881:
	goto	l3291
u1880:
	line	29
	
l3293:	
	return
	opt stack 0
GLOBAL	__end_of_putRowData
	__end_of_putRowData:
;; =============== function _putRowData ends ============

	signat	_putRowData,8312
	global	_eeprom_read
psect	text958,local,class=CODE,delta=2
global __ptext958
__ptext958:

;; *************** function _eeprom_read *****************
;; Defined at:
;;		line 7 in file "eeread.c"
;; Parameters:    Size  Location     Type
;;  addr            1    wreg     unsigned char 
;; Auto vars:     Size  Location     Type
;;  addr            1   15[BANK0 ] unsigned char 
;; Return value:  Size  Location     Type
;;                  1    wreg      unsigned char 
;; Registers used:
;;		wreg, status,2, status,0
;; Tracked objects:
;;		On entry : 60/0
;;		On exit  : 60/40
;;		Unchanged: FFE00/0
;; Data sizes:     COMMON   BANK0   BANK1   BANK3   BANK2
;;      Params:         0       0       0       0       0
;;      Locals:         0       1       0       0       0
;;      Temps:          0       0       0       0       0
;;      Totals:         0       1       0       0       0
;;Total ram usage:        1 bytes
;; Hardware stack levels used:    1
;; Hardware stack levels required when called:    4
;; This function calls:
;;		Nothing
;; This function is called by:
;;		_main
;;		_eeprom_str_read
;; This function uses a non-reentrant model
;;
psect	text958
	file	"C:\Program Files\HI-TECH Software\PICC\9.83\sources\eeread.c"
	line	7
	global	__size_of_eeprom_read
	__size_of_eeprom_read	equ	__end_of_eeprom_read-_eeprom_read
	
_eeprom_read:	
	opt	stack 1
; Regs used in _eeprom_read: [wreg+status,2+status,0]
;eeprom_read@addr stored from wreg
	line	9
	movwf	(eeprom_read@addr)
	line	8
	
l5325:	
	line	9
# 9 "C:\Program Files\HI-TECH Software\PICC\9.83\sources\eeread.c"
clrwdt ;#
psect	text958
	line	10
	bsf	status, 5	;RP0=1, select bank3
	bsf	status, 6	;RP1=1, select bank3
	btfsc	(3169/8)^0180h,(3169)&7
	goto	u1831
	goto	u1830
u1831:
	goto	l5325
u1830:
	line	11
	
l9032:	
	bcf	status, 5	;RP0=0, select bank0
	bcf	status, 6	;RP1=0, select bank0
	movf	(eeprom_read@addr),w
	bsf	status, 6	;RP1=1, select bank2
	movwf	(269)^0100h	;volatile
	movlw	(03Fh)
	bsf	status, 5	;RP0=1, select bank3
	andwf	(396)^0180h,f	;volatile
	bsf	(3168/8)^0180h,(3168)&7
	clrc
	btfsc	(3168/8)^0180h,(3168)&7
	setc
	movlw	0
	skipnc
	movlw	1

	bcf	status, 5	;RP0=0, select bank2
	movf	(268)^0100h,w	;volatile
	line	12
	
l5327:	
	return
	opt stack 0
GLOBAL	__end_of_eeprom_read
	__end_of_eeprom_read:
;; =============== function _eeprom_read ends ============

	signat	_eeprom_read,4217
	global	__memcpy
psect	text959,local,class=CODE,delta=2
global __ptext959
__ptext959:

;; *************** function __memcpy *****************
;; Defined at:
;;		line 17 in file "C:\Users\ranjan\Desktop\matrix\general.c"
;; Parameters:    Size  Location     Type
;;  str1            1    wreg     PTR unsigned char 
;;		 -> display_str(40), 
;;  str2            2   15[BANK0 ] PTR const unsigned char 
;;		 -> STR_7(23), 
;;  n               2   17[BANK0 ] unsigned int 
;; Auto vars:     Size  Location     Type
;;  str1            1   21[BANK0 ] PTR unsigned char 
;;		 -> display_str(40), 
;;  temp_ptr        1    0        PTR unsigned char 
;;		 -> display_str(40), 
;; Return value:  Size  Location     Type
;;                  1    wreg      PTR void 
;; Registers used:
;;		wreg, fsr0l, fsr0h, status,2, status,0, btemp+1, pclath
;; Tracked objects:
;;		On entry : 7F/0
;;		On exit  : 7F/0
;;		Unchanged: FFE80/0
;; Data sizes:     COMMON   BANK0   BANK1   BANK3   BANK2
;;      Params:         0       4       0       0       0
;;      Locals:         0       2       0       0       0
;;      Temps:          0       1       0       0       0
;;      Totals:         0       7       0       0       0
;;Total ram usage:        7 bytes
;; Hardware stack levels used:    1
;; Hardware stack levels required when called:    4
;; This function calls:
;;		Nothing
;; This function is called by:
;;		_main
;; This function uses a non-reentrant model
;;
psect	text959
	file	"C:\Users\ranjan\Desktop\matrix\general.c"
	line	17
	global	__size_of__memcpy
	__size_of__memcpy	equ	__end_of__memcpy-__memcpy
	
__memcpy:	
	opt	stack 3
; Regs used in __memcpy: [wreg-fsr0h+status,2+status,0+btemp+1+pclath]
;__memcpy@str1 stored from wreg
	movwf	(__memcpy@str1)
	line	18
	
l9022:	
	line	19
;general.c: 19: while(n-- > 0)
	goto	l9030
	line	21
	
l9024:	
;general.c: 20: {
;general.c: 21: *str1++ = *str2++;
	movf	(__memcpy@str2+1),w
	movwf	btemp+1
	movf	(__memcpy@str2),w
	movwf	fsr0
	fcall	stringtab
	movwf	(??__memcpy+0)+0
	movf	(__memcpy@str1),w
	movwf	fsr0
	movf	(??__memcpy+0)+0,w
	bsf	status, 7	;select IRP bank2
	movwf	indf
	
l9026:	
	incf	(__memcpy@str2),f
	skipnz
	incf	(__memcpy@str2+1),f
	
l9028:	
	incf	(__memcpy@str1),f
	line	19
	
l9030:	
	movlw	low(01h)
	subwf	(__memcpy@n),f
	movlw	high(01h)
	skipc
	decf	(__memcpy@n+1),f
	subwf	(__memcpy@n+1),f
	incf	((__memcpy@n)),w
	skipnz
	incf	((__memcpy@n+1)),w

	skipz
	goto	u1821
	goto	u1820
u1821:
	goto	l9024
u1820:
	line	24
	
l3350:	
	return
	opt stack 0
GLOBAL	__end_of__memcpy
	__end_of__memcpy:
;; =============== function __memcpy ends ============

	signat	__memcpy,12409
	global	_eeprom_write
psect	text960,local,class=CODE,delta=2
global __ptext960
__ptext960:

;; *************** function _eeprom_write *****************
;; Defined at:
;;		line 7 in file "C:\Program Files\HI-TECH Software\PICC\9.83\sources\eewrite.c"
;; Parameters:    Size  Location     Type
;;  addr            1    wreg     unsigned char 
;;  value           1   15[BANK0 ] unsigned char 
;; Auto vars:     Size  Location     Type
;;  addr            1   16[BANK0 ] unsigned char 
;; Return value:  Size  Location     Type
;;                  1    wreg      unsigned char 
;; Registers used:
;;		wreg, status,2, status,0
;; Tracked objects:
;;		On entry : 60/0
;;		On exit  : 60/60
;;		Unchanged: FFF9F/0
;; Data sizes:     COMMON   BANK0   BANK1   BANK3   BANK2
;;      Params:         0       1       0       0       0
;;      Locals:         0       1       0       0       0
;;      Temps:          0       0       0       0       0
;;      Totals:         0       2       0       0       0
;;Total ram usage:        2 bytes
;; Hardware stack levels used:    1
;; Hardware stack levels required when called:    4
;; This function calls:
;;		Nothing
;; This function is called by:
;;		_keybrdInput
;;		_main
;;		_eeprom_str_write
;; This function uses a non-reentrant model
;;
psect	text960
	file	"C:\Program Files\HI-TECH Software\PICC\9.83\sources\eewrite.c"
	line	7
	global	__size_of_eeprom_write
	__size_of_eeprom_write	equ	__end_of_eeprom_write-_eeprom_write
	
_eeprom_write:	
	opt	stack 1
; Regs used in _eeprom_write: [wreg+status,2+status,0]
;eeprom_write@addr stored from wreg
	movwf	(eeprom_write@addr)
	line	8
	
l6248:	
	
l6249:	
	bsf	status, 5	;RP0=1, select bank3
	bsf	status, 6	;RP1=1, select bank3
	btfsc	(3169/8)^0180h,(3169)&7
	goto	u1711
	goto	u1710
u1711:
	goto	l6249
u1710:
	
l8926:	
	bcf	status, 5	;RP0=0, select bank0
	bcf	status, 6	;RP1=0, select bank0
	movf	(eeprom_write@addr),w
	bsf	status, 6	;RP1=1, select bank2
	movwf	(269)^0100h	;volatile
	bcf	status, 6	;RP1=0, select bank0
	movf	(eeprom_write@value),w
	bsf	status, 6	;RP1=1, select bank2
	movwf	(268)^0100h	;volatile
	
l8928:	
	movlw	(03Fh)
	bsf	status, 5	;RP0=1, select bank3
	andwf	(396)^0180h,f	;volatile
	
l8930:	
	bcf	(24/8),(24)&7
	
l8932:	
	btfss	(95/8),(95)&7
	goto	u1721
	goto	u1720
u1721:
	goto	l6252
u1720:
	
l8934:	
	bsf	(24/8),(24)&7
	
l6252:	
	bcf	(95/8),(95)&7
	bsf	(3170/8)^0180h,(3170)&7
	
l8936:	
	movlw	(055h)
	movwf	(397)^0180h	;volatile
	movlw	(0AAh)
	movwf	(397)^0180h	;volatile
	
l8938:	
	bsf	(3169/8)^0180h,(3169)&7
	
l8940:	
	bcf	(3170/8)^0180h,(3170)&7
	
l8942:	
	btfss	(24/8),(24)&7
	goto	u1731
	goto	u1730
u1731:
	goto	l6255
u1730:
	
l8944:	
	bsf	(95/8),(95)&7
	line	10
	
l6255:	
	return
	opt stack 0
GLOBAL	__end_of_eeprom_write
	__end_of_eeprom_write:
;; =============== function _eeprom_write ends ============

	signat	_eeprom_write,8313
	global	_Back
psect	text961,local,class=CODE,delta=2
global __ptext961
__ptext961:

;; *************** function _Back *****************
;; Defined at:
;;		line 476 in file "C:\Users\ranjan\Desktop\matrix\ps2_kbd.c"
;; Parameters:    Size  Location     Type
;;  ptr             1    wreg     PTR unsigned char 
;;		 -> keybrdInput@display_str(1), 
;;  cur_loc         1   15[BANK0 ] unsigned char 
;;  Buffsize        1   16[BANK0 ] unsigned char 
;; Auto vars:     Size  Location     Type
;;  ptr             1   20[BANK0 ] PTR unsigned char 
;;		 -> keybrdInput@display_str(1), 
;; Return value:  Size  Location     Type
;;		None               void
;; Registers used:
;;		wreg, fsr0l, fsr0h, status,2, status,0
;; Tracked objects:
;;		On entry : 60/0
;;		On exit  : 160/0
;;		Unchanged: FFE9F/0
;; Data sizes:     COMMON   BANK0   BANK1   BANK3   BANK2
;;      Params:         0       2       0       0       0
;;      Locals:         0       1       0       0       0
;;      Temps:          0       3       0       0       0
;;      Totals:         0       6       0       0       0
;;Total ram usage:        6 bytes
;; Hardware stack levels used:    1
;; Hardware stack levels required when called:    4
;; This function calls:
;;		Nothing
;; This function is called by:
;;		_keybrdInput
;; This function uses a non-reentrant model
;;
psect	text961
	file	"C:\Users\ranjan\Desktop\matrix\ps2_kbd.c"
	line	476
	global	__size_of_Back
	__size_of_Back	equ	__end_of_Back-_Back
	
_Back:	
	opt	stack 2
; Regs used in _Back: [wreg-fsr0h+status,2+status,0]
;Back@ptr stored from wreg
	movwf	(Back@ptr)
	line	477
	
l8916:	
;ps2_kbd.c: 477: while(cur_loc != (Buffsize-1))
	goto	l8922
	line	479
	
l8918:	
;ps2_kbd.c: 478: {
;ps2_kbd.c: 479: *(ptr+cur_loc)=*(ptr+(cur_loc+1));
	movf	(Back@cur_loc),w
	addwf	(Back@ptr),w
	movwf	(??_Back+0)+0
	movf	0+(??_Back+0)+0,w
	addlw	01h
	movwf	fsr0
	movf	indf,w
	movwf	(??_Back+1)+0
	movf	(Back@cur_loc),w
	addwf	(Back@ptr),w
	movwf	(??_Back+2)+0
	movf	0+(??_Back+2)+0,w
	movwf	fsr0
	movf	(??_Back+1)+0,w
	movwf	indf
	line	480
	
l8920:	
;ps2_kbd.c: 480: cur_loc++;
	incf	(Back@cur_loc),f
	line	477
	
l8922:	
	movf	(Back@Buffsize),w
	addlw	low(-1)
	movwf	(??_Back+0)+0
	movlw	high(-1)
	skipnc
	movlw	(high(-1)+1)&0ffh
	movwf	((??_Back+0)+0)+1
	movf	(Back@cur_loc),w
	xorwf	0+(??_Back+0)+0,w
	iorwf	1+(??_Back+0)+0,w
	skipz
	goto	u1701
	goto	u1700
u1701:
	goto	l8918
u1700:
	line	482
	
l8924:	
;ps2_kbd.c: 481: }
;ps2_kbd.c: 482: *(ptr+cur_loc)=' ';
	movf	(Back@cur_loc),w
	addwf	(Back@ptr),w
	movwf	(??_Back+0)+0
	movf	0+(??_Back+0)+0,w
	movwf	fsr0
	movlw	(020h)
	movwf	indf
	line	483
	
l1167:	
	return
	opt stack 0
GLOBAL	__end_of_Back
	__end_of_Back:
;; =============== function _Back ends ============

	signat	_Back,12408
	global	_select_scrll_speed
psect	text962,local,class=CODE,delta=2
global __ptext962
__ptext962:

;; *************** function _select_scrll_speed *****************
;; Defined at:
;;		line 486 in file "C:\Users\ranjan\Desktop\matrix\ps2_kbd.c"
;; Parameters:    Size  Location     Type
;;		None
;; Auto vars:     Size  Location     Type
;;  wait            1    0        unsigned char 
;;  speed_select    1    0        unsigned char 
;;  key             1    0        unsigned char 
;; Return value:  Size  Location     Type
;;		None               void
;; Registers used:
;;		None
;; Tracked objects:
;;		On entry : 60/0
;;		On exit  : 160/0
;;		Unchanged: FFFFFE9F/0
;; Data sizes:     COMMON   BANK0   BANK1   BANK3   BANK2
;;      Params:         0       0       0       0       0
;;      Locals:         0       0       0       0       0
;;      Temps:          0       0       0       0       0
;;      Totals:         0       0       0       0       0
;;Total ram usage:        0 bytes
;; Hardware stack levels used:    1
;; Hardware stack levels required when called:    4
;; This function calls:
;;		Nothing
;; This function is called by:
;;		_keybrdInput
;; This function uses a non-reentrant model
;;
psect	text962
	file	"C:\Users\ranjan\Desktop\matrix\ps2_kbd.c"
	line	486
	global	__size_of_select_scrll_speed
	__size_of_select_scrll_speed	equ	__end_of_select_scrll_speed-_select_scrll_speed
	
_select_scrll_speed:	
	opt	stack 2
; Regs used in _select_scrll_speed: []
	line	529
	
l1170:	
	return
	opt stack 0
GLOBAL	__end_of_select_scrll_speed
	__end_of_select_scrll_speed:
;; =============== function _select_scrll_speed ends ============

	signat	_select_scrll_speed,88
	global	__memset
psect	text963,local,class=CODE,delta=2
global __ptext963
__ptext963:

;; *************** function __memset *****************
;; Defined at:
;;		line 27 in file "C:\Users\ranjan\Desktop\matrix\general.c"
;; Parameters:    Size  Location     Type
;;  str             2   15[BANK0 ] PTR unsigned char 
;;		 -> dispRam2(64), dispRam1(64), display_str(40), keybrdInput@display_str(1), 
;;  c               1   17[BANK0 ] unsigned char 
;;  n               2   18[BANK0 ] int 
;; Auto vars:     Size  Location     Type
;;		None
;; Return value:  Size  Location     Type
;;		None               void
;; Registers used:
;;		wreg, fsr0l, fsr0h, status,2, status,0
;; Tracked objects:
;;		On entry : 60/0
;;		On exit  : 60/0
;;		Unchanged: FFE9F/0
;; Data sizes:     COMMON   BANK0   BANK1   BANK3   BANK2
;;      Params:         0       5       0       0       0
;;      Locals:         0       0       0       0       0
;;      Temps:          0       1       0       0       0
;;      Totals:         0       6       0       0       0
;;Total ram usage:        6 bytes
;; Hardware stack levels used:    1
;; Hardware stack levels required when called:    4
;; This function calls:
;;		Nothing
;; This function is called by:
;;		_keybrdInput
;;		_main
;;		_clr_disp
;; This function uses a non-reentrant model
;;
psect	text963
	file	"C:\Users\ranjan\Desktop\matrix\general.c"
	line	27
	global	__size_of__memset
	__size_of__memset	equ	__end_of__memset-__memset
	
__memset:	
	opt	stack 2
; Regs used in __memset: [wreg-fsr0h+status,2+status,0]
	line	29
	
l8906:	
;general.c: 29: while(n!=0)
	goto	l8914
	line	31
	
l8908:	
;general.c: 30: {
;general.c: 31: *str = c;
	movf	(__memset@c),w
	movwf	(??__memset+0)+0
	movf	(__memset@str),w
	movwf	fsr0
	bcf	status,7
	btfsc	(__memset@str+1),0
	bsf	status,7
	
	movf	(??__memset+0)+0,w
	movwf	indf
	line	32
	
l8910:	
;general.c: 32: n--;
	movlw	-1
	addwf	(__memset@n),f
	skipc
	decf	(__memset@n+1),f
	line	33
	
l8912:	
;general.c: 33: str++;
	incf	(__memset@str),f
	skipnz
	incf	(__memset@str+1),f
	line	29
	
l8914:	
	movf	((__memset@n+1)),w
	iorwf	((__memset@n)),w
	skipz
	goto	u1691
	goto	u1690
u1691:
	goto	l8908
u1690:
	line	36
	
l3356:	
	return
	opt stack 0
GLOBAL	__end_of__memset
	__end_of__memset:
;; =============== function __memset ends ============

	signat	__memset,12408
	global	_fillRAM
psect	text964,local,class=CODE,delta=2
global __ptext964
__ptext964:

;; *************** function _fillRAM *****************
;; Defined at:
;;		line 147 in file "C:\Users\ranjan\Desktop\matrix\LDM.c"
;; Parameters:    Size  Location     Type
;;  col             1    wreg     unsigned char 
;;  data            2   15[BANK0 ] unsigned int 
;; Auto vars:     Size  Location     Type
;;  col             1   17[BANK0 ] unsigned char 
;; Return value:  Size  Location     Type
;;		None               void
;; Registers used:
;;		wreg, fsr0l, fsr0h, status,2, status,0
;; Tracked objects:
;;		On entry : 60/0
;;		On exit  : 60/0
;;		Unchanged: FFE9F/0
;; Data sizes:     COMMON   BANK0   BANK1   BANK3   BANK2
;;      Params:         0       2       0       0       0
;;      Locals:         0       1       0       0       0
;;      Temps:          0       0       0       0       0
;;      Totals:         0       3       0       0       0
;;Total ram usage:        3 bytes
;; Hardware stack levels used:    1
;; Hardware stack levels required when called:    4
;; This function calls:
;;		Nothing
;; This function is called by:
;;		_put_cursor
;;		_small_font_disp
;; This function uses a non-reentrant model
;;
psect	text964
	file	"C:\Users\ranjan\Desktop\matrix\LDM.c"
	line	147
	global	__size_of_fillRAM
	__size_of_fillRAM	equ	__end_of_fillRAM-_fillRAM
	
_fillRAM:	
	opt	stack 1
; Regs used in _fillRAM: [wreg-fsr0h+status,2+status,0]
;fillRAM@col stored from wreg
	movwf	(fillRAM@col)
	line	148
	
l8896:	
;LDM.c: 148: if(col>=0 && col<32)
	movlw	(020h)
	subwf	(fillRAM@col),w
	skipnc
	goto	u1661
	goto	u1660
u1661:
	goto	l8900
u1660:
	line	150
	
l8898:	
;LDM.c: 149: {
;LDM.c: 150: dispRam1[col] |= data;
	clrc
	rlf	(fillRAM@col),w
	addlw	_dispRam1&0ffh
	movwf	fsr0
	movf	(fillRAM@data),w
	bsf	status, 7	;select IRP bank3
	iorwf	indf,f
	incf	fsr0,f
	movf	(fillRAM@data+1),w
	iorwf	indf,f
	line	151
;LDM.c: 151: }
	goto	l3341
	line	152
	
l8900:	
;LDM.c: 152: else if(col>=32 && col <64)
	movlw	(020h)
	subwf	(fillRAM@col),w
	skipc
	goto	u1671
	goto	u1670
u1671:
	goto	l3341
u1670:
	
l8902:	
	movlw	(040h)
	subwf	(fillRAM@col),w
	skipnc
	goto	u1681
	goto	u1680
u1681:
	goto	l3341
u1680:
	line	154
	
l8904:	
;LDM.c: 153: {
;LDM.c: 154: dispRam2[col-32] |= data;
	clrc
	rlf	(fillRAM@col),w
	addlw	_dispRam2+-64&0ffh
	movwf	fsr0
	movf	(fillRAM@data),w
	bcf	status, 7	;select IRP bank1
	iorwf	indf,f
	incf	fsr0,f
	movf	(fillRAM@data+1),w
	iorwf	indf,f
	line	156
	
l3341:	
	return
	opt stack 0
GLOBAL	__end_of_fillRAM
	__end_of_fillRAM:
;; =============== function _fillRAM ends ============

	signat	_fillRAM,8312
	global	_getKey
psect	text965,local,class=CODE,delta=2
global __ptext965
__ptext965:

;; *************** function _getKey *****************
;; Defined at:
;;		line 259 in file "C:\Users\ranjan\Desktop\matrix\ps2_kbd.c"
;; Parameters:    Size  Location     Type
;;		None
;; Auto vars:     Size  Location     Type
;;  data            1   15[BANK0 ] unsigned char 
;; Return value:  Size  Location     Type
;;                  1    wreg      unsigned char 
;; Registers used:
;;		wreg, fsr0l, fsr0h, status,2, status,0
;; Tracked objects:
;;		On entry : 60/0
;;		On exit  : 160/0
;;		Unchanged: FFE9F/0
;; Data sizes:     COMMON   BANK0   BANK1   BANK3   BANK2
;;      Params:         0       0       0       0       0
;;      Locals:         0       1       0       0       0
;;      Temps:          0       0       0       0       0
;;      Totals:         0       1       0       0       0
;;Total ram usage:        1 bytes
;; Hardware stack levels used:    1
;; Hardware stack levels required when called:    4
;; This function calls:
;;		Nothing
;; This function is called by:
;;		_keybrdInput
;; This function uses a non-reentrant model
;;
psect	text965
	file	"C:\Users\ranjan\Desktop\matrix\ps2_kbd.c"
	line	259
	global	__size_of_getKey
	__size_of_getKey	equ	__end_of_getKey-_getKey
	
_getKey:	
	opt	stack 2
; Regs used in _getKey: [wreg-fsr0h+status,2+status,0]
	line	260
	
l8810:	
;ps2_kbd.c: 260: unsigned char data=kbd_queue[outptr++];
	movf	(_outptr),w
	addlw	_kbd_queue&0ffh
	movwf	fsr0
	bcf	status, 7	;select IRP bank0
	movf	indf,w
	movwf	(getKey@data)
	
l8812:	
	incf	(_outptr),f
	line	262
	
l8814:	
;ps2_kbd.c: 262: if(outptr == 5) outptr=0;
	movf	(_outptr),w
	xorlw	05h
	skipz
	goto	u1491
	goto	u1490
u1491:
	goto	l8818
u1490:
	
l8816:	
	clrf	(_outptr)
	line	263
	
l8818:	
;ps2_kbd.c: 263: return data;
	movf	(getKey@data),w
	line	264
	
l1091:	
	return
	opt stack 0
GLOBAL	__end_of_getKey
	__end_of_getKey:
;; =============== function _getKey ends ============

	signat	_getKey,89
	global	_ISR
psect	text966,local,class=CODE,delta=2
global __ptext966
__ptext966:

;; *************** function _ISR *****************
;; Defined at:
;;		line 14 in file "C:\Users\ranjan\Desktop\matrix\main.c"
;; Parameters:    Size  Location     Type
;;		None
;; Auto vars:     Size  Location     Type
;;		None
;; Return value:  Size  Location     Type
;;		None               void
;; Registers used:
;;		wreg, fsr0l, fsr0h, status,2, status,0, btemp+1, pclath, cstack
;; Tracked objects:
;;		On entry : 0/0
;;		On exit  : 60/0
;;		Unchanged: 0/0
;; Data sizes:     COMMON   BANK0   BANK1   BANK3   BANK2
;;      Params:         0       0       0       0       0
;;      Locals:         0       0       0       0       0
;;      Temps:          0       4       0       0       0
;;      Totals:         0       4       0       0       0
;;Total ram usage:        4 bytes
;; Hardware stack levels used:    1
;; Hardware stack levels required when called:    3
;; This function calls:
;;		_kbd
;;		i1_refresh_display
;;		_screenShift
;;		i1_charUpdate
;; This function is called by:
;;		Interrupt level 1
;; This function uses a non-reentrant model
;;
psect	text966
	file	"C:\Users\ranjan\Desktop\matrix\main.c"
	line	14
	global	__size_of_ISR
	__size_of_ISR	equ	__end_of_ISR-_ISR
	
_ISR:	
	opt	stack 0
; Regs used in _ISR: [wreg-fsr0h+status,2+status,0+btemp+1+pclath+cstack]
psect	intentry,class=CODE,delta=2
global __pintentry
__pintentry:
global interrupt_function
interrupt_function:
	global saved_w
	saved_w	set	btemp+0
	movwf	saved_w
	swapf	status,w
	bcf	status, 5	;RP0=0, select bank0
	bcf	status, 6	;RP1=0, select bank0
	movwf	(??_ISR+0)
	movf	fsr0,w
	movwf	(??_ISR+1)
	movf	pclath,w
	movwf	(??_ISR+2)
	movf	btemp+1,w
	movwf	(??_ISR+3)
	ljmp	_ISR
psect	text966
	line	19
	
i1l8946:	
;main.c: 16: static unsigned char delay=0,i=0;
;main.c: 19: if(INTF)
	btfss	(89/8),(89)&7
	goto	u174_21
	goto	u174_20
u174_21:
	goto	i1l2229
u174_20:
	line	21
	
i1l8948:	
;main.c: 20: {
;main.c: 21: bitVars.PS2Active=1;
	bsf	(_bitVars),5
	line	22
	
i1l8950:	
;main.c: 22: kbd();
	fcall	_kbd
	line	23
	
i1l8952:	
;main.c: 23: INTF=0;
	bcf	(89/8),(89)&7
	line	24
;main.c: 24: }
	goto	i1l2237
	line	25
	
i1l2229:	
;main.c: 25: else if(TMR0IF)
	btfss	(90/8),(90)&7
	goto	u175_21
	goto	u175_20
u175_21:
	goto	i1l2231
u175_20:
	line	28
	
i1l8954:	
;main.c: 26: {
;main.c: 28: TMR0IE = 0;
	bcf	(93/8),(93)&7
	line	31
	
i1l8956:	
;main.c: 31: refresh_display();
	fcall	i1_refresh_display
	line	32
	
i1l8958:	
;main.c: 32: TMR0IF=0;
	bcf	(90/8),(90)&7
	line	33
	
i1l8960:	
;main.c: 33: TMR0IE = 1;
	bsf	(93/8),(93)&7
	line	34
;main.c: 34: }
	goto	i1l2237
	line	35
	
i1l2231:	
;main.c: 35: else if(TMR1IF)
	btfss	(96/8),(96)&7
	goto	u176_21
	goto	u176_20
u176_21:
	goto	i1l2237
u176_20:
	line	37
	
i1l8962:	
;main.c: 36: {
;main.c: 37: TMR1ON=0;
	bcf	(128/8),(128)&7
	line	38
;main.c: 38: TMR0IE = 0;
	bcf	(93/8),(93)&7
	line	39
	
i1l8964:	
;main.c: 39: delay++;
	incf	(ISR@delay),f
	line	45
	
i1l8966:	
;main.c: 45: if(delay == 1 )
	decf	(ISR@delay),w
	skipz
	goto	u177_21
	goto	u177_20
u177_21:
	goto	i1l8986
u177_20:
	line	47
	
i1l8968:	
;main.c: 46: {
;main.c: 47: delay=0;
	clrf	(ISR@delay)
	line	48
	
i1l8970:	
;main.c: 48: screenShift();
	fcall	_screenShift
	line	49
	
i1l8972:	
;main.c: 49: i++;
	bcf	status, 6	;RP1=0, select bank0
	incf	(ISR@i),f
	line	56
	
i1l8974:	
;main.c: 56: if(i == char_cntrl.char_length)
	movf	0+(_char_cntrl)+01h,w
	xorwf	(ISR@i),w
	skipz
	goto	u178_21
	goto	u178_20
u178_21:
	goto	i1l8986
u178_20:
	line	58
	
i1l8976:	
;main.c: 57: {
;main.c: 58: char_cntrl.char_count++;
	incf	(_char_cntrl),f
	line	59
	
i1l8978:	
;main.c: 59: i=0;
	clrf	(ISR@i)
	line	61
	
i1l8980:	
;main.c: 61: if(char_cntrl.char_count>=NoOfBytes)
	movf	(_NoOfBytes),w
	subwf	(_char_cntrl),w
	skipc
	goto	u179_21
	goto	u179_20
u179_21:
	goto	i1l8984
u179_20:
	line	63
	
i1l8982:	
;main.c: 62: {
;main.c: 63: char_cntrl.char_count = 0;
	clrf	(_char_cntrl)
	line	64
;main.c: 64: char_cntrl.char_length= 0;
	clrf	0+(_char_cntrl)+01h
	line	66
	
i1l8984:	
;main.c: 65: }
;main.c: 66: charUpdate();
	fcall	i1_charUpdate
	line	69
	
i1l8986:	
;main.c: 67: }
;main.c: 68: }
;main.c: 69: TMR1IF=0;
	bcf	(96/8),(96)&7
	line	70
	
i1l8988:	
;main.c: 70: TMR1ON=1;
	bsf	(128/8),(128)&7
	goto	i1l8960
	line	74
	
i1l2237:	
	bcf	status, 5	;RP0=0, select bank0
	bcf	status, 6	;RP1=0, select bank0
	movf	(??_ISR+3),w
	movwf	btemp+1
	movf	(??_ISR+2),w
	movwf	pclath
	movf	(??_ISR+1),w
	movwf	fsr0
	swapf	(??_ISR+0)^00h,w
	movwf	status
	swapf	saved_w,f
	swapf	saved_w,w
	retfie
	opt stack 0
GLOBAL	__end_of_ISR
	__end_of_ISR:
;; =============== function _ISR ends ============

	signat	_ISR,88
	global	i1_charUpdate
psect	text967,local,class=CODE,delta=2
global __ptext967
__ptext967:

;; *************** function i1_charUpdate *****************
;; Defined at:
;;		line 65 in file "C:\Users\ranjan\Desktop\matrix\LDM.c"
;; Parameters:    Size  Location     Type
;;		None
;; Auto vars:     Size  Location     Type
;;  charUpdate      2    8[BANK0 ] unsigned int 
;;  charUpdate      2    5[BANK0 ] PTR unsigned char 
;;  charUpdate      1   10[BANK0 ] unsigned char 
;;  charUpdate      1    7[BANK0 ] unsigned char 
;;  charUpdate      1    4[BANK0 ] unsigned char 
;;  charUpdate      1    3[BANK0 ] unsigned char 
;;  charUpdate      1    2[BANK0 ] unsigned char 
;; Return value:  Size  Location     Type
;;		None               void
;; Registers used:
;;		wreg, fsr0l, fsr0h, status,2, status,0, btemp+1, pclath, cstack
;; Tracked objects:
;;		On entry : 160/100
;;		On exit  : 60/0
;;		Unchanged: FFE9F/0
;; Data sizes:     COMMON   BANK0   BANK1   BANK3   BANK2
;;      Params:         0       0       0       0       0
;;      Locals:         0       9       0       0       0
;;      Temps:          0       2       0       0       0
;;      Totals:         0      11       0       0       0
;;Total ram usage:       11 bytes
;; Hardware stack levels used:    1
;; Hardware stack levels required when called:    2
;; This function calls:
;;		i1_get_Arial_Rounded_MT_Bold15x16
;; This function is called by:
;;		_ISR
;; This function uses a non-reentrant model
;;
psect	text967
	file	"C:\Users\ranjan\Desktop\matrix\LDM.c"
	line	65
	global	__size_ofi1_charUpdate
	__size_ofi1_charUpdate	equ	__end_ofi1_charUpdate-i1_charUpdate
	
i1_charUpdate:	
;; using string table level
	opt	stack 1
; Regs used in i1_charUpdate: [wreg-fsr0h+status,2+status,0+btemp+1+pclath+cstack]
	line	70
	
i1l9158:	
;LDM.c: 66: unsigned char charac;
;LDM.c: 67: unsigned char i;
;LDM.c: 68: unsigned char *ptr;
;LDM.c: 69: unsigned int temp;
;LDM.c: 70: unsigned char col=0;
	clrf	(i1charUpdate@col)
	line	71
;LDM.c: 71: unsigned char size=0;
	clrf	(i1charUpdate@size)
	line	72
;LDM.c: 72: unsigned char j=0;
	clrf	(i1charUpdate@j)
	line	74
	
i1l9160:	
;LDM.c: 74: charac=display_str[char_cntrl.char_count];
	movf	(_char_cntrl),w
	addlw	_display_str&0ffh
	movwf	fsr0
	movf	indf,w
	movwf	(i1charUpdate@charac)
	line	76
	
i1l9162:	
;LDM.c: 76: char_cntrl.char_length = *get_Arial_Rounded_MT_Bold15x16(charac);
	movf	(i1charUpdate@charac),w
	fcall	i1_get_Arial_Rounded_MT_Bold15x16
	movf	(1+(?i1_get_Arial_Rounded_MT_Bold15x16)),w
	movwf	btemp+1
	movf	(0+(?i1_get_Arial_Rounded_MT_Bold15x16)),w
	movwf	fsr0
	fcall	stringtab
	movwf	0+(_char_cntrl)+01h
	line	77
;LDM.c: 77: while(charac!=0xFF)
	goto	i1l9204
	line	79
	
i1l9164:	
;LDM.c: 78: {
;LDM.c: 79: ptr = get_Arial_Rounded_MT_Bold15x16(charac);
	movf	(i1charUpdate@charac),w
	fcall	i1_get_Arial_Rounded_MT_Bold15x16
	movf	(1+(?i1_get_Arial_Rounded_MT_Bold15x16)),w
	movwf	(i1charUpdate@ptr+1)
	movf	(0+(?i1_get_Arial_Rounded_MT_Bold15x16)),w
	movwf	(i1charUpdate@ptr)
	line	80
	
i1l9166:	
;LDM.c: 80: size = *ptr;
	movf	(i1charUpdate@ptr+1),w
	movwf	btemp+1
	movf	(i1charUpdate@ptr),w
	movwf	fsr0
	fcall	stringtab
	movwf	(i1charUpdate@size)
	line	81
	
i1l9168:	
;LDM.c: 81: j++;
	incf	(i1charUpdate@j),f
	line	82
	
i1l9170:	
;LDM.c: 82: for(i=0; i<size; i++,col++)
	clrf	(i1charUpdate@i)
	goto	i1l9200
	line	84
	
i1l9172:	
;LDM.c: 83: {
;LDM.c: 84: if(i==0) temp=0;
	movf	(i1charUpdate@i),f
	skipz
	goto	u201_21
	goto	u201_20
u201_21:
	goto	i1l9176
u201_20:
	
i1l9174:	
	clrf	(i1charUpdate@temp)
	clrf	(i1charUpdate@temp+1)
	goto	i1l3307
	line	88
	
i1l9176:	
;LDM.c: 85: else
;LDM.c: 86: {
;LDM.c: 88: temp=*(++ptr+1);
	movlw	01h
	incf	(i1charUpdate@ptr),f
	skipnz
	incf	(i1charUpdate@ptr+1),f
	addwf	((i1charUpdate@ptr)),w
	movwf	fsr0
	movf	((i1charUpdate@ptr+1)),w
	skipnc
	incf	((i1charUpdate@ptr+1)),w
	movwf	btemp+1
	fcall	stringtab
	movwf	(i1charUpdate@temp)
	clrf	(i1charUpdate@temp+1)
	line	89
	
i1l9178:	
;LDM.c: 89: temp<<=8;
	movf	(i1charUpdate@temp),w
	movwf	(i1charUpdate@temp+1)
	clrf	(i1charUpdate@temp)
	line	90
	
i1l9180:	
;LDM.c: 90: temp|=*(ptr++);
	movf	(i1charUpdate@ptr+1),w
	movwf	btemp+1
	movf	(i1charUpdate@ptr),w
	movwf	fsr0
	fcall	stringtab
	iorwf	(i1charUpdate@temp),f
	
i1l9182:	
	incf	(i1charUpdate@ptr),f
	skipnz
	incf	(i1charUpdate@ptr+1),f
	line	96
	
i1l3307:	
	line	97
;LDM.c: 96: }
;LDM.c: 97: if(col<=31) dispRam1[col]=temp;
	movlw	(020h)
	subwf	(i1charUpdate@col),w
	skipnc
	goto	u202_21
	goto	u202_20
u202_21:
	goto	i1l9186
u202_20:
	
i1l9184:	
	clrc
	rlf	(i1charUpdate@col),w
	addlw	_dispRam1&0ffh
	movwf	fsr0
	movf	(i1charUpdate@temp),w
	bsf	status, 7	;select IRP bank3
	movwf	indf
	incf	fsr0,f
	movf	(i1charUpdate@temp+1),w
	movwf	indf
	goto	i1l9198
	line	98
	
i1l9186:	
;LDM.c: 98: else if(col>=32 && col<=63) dispRam2[col-32]=temp;
	movlw	(020h)
	subwf	(i1charUpdate@col),w
	skipc
	goto	u203_21
	goto	u203_20
u203_21:
	goto	i1l9192
u203_20:
	
i1l9188:	
	movlw	(040h)
	subwf	(i1charUpdate@col),w
	skipnc
	goto	u204_21
	goto	u204_20
u204_21:
	goto	i1l9192
u204_20:
	
i1l9190:	
	clrc
	rlf	(i1charUpdate@col),w
	addlw	_dispRam2+-64&0ffh
	movwf	fsr0
	movf	(i1charUpdate@temp),w
	bcf	status, 7	;select IRP bank1
	movwf	indf
	incf	fsr0,f
	movf	(i1charUpdate@temp+1),w
	movwf	indf
	goto	i1l9198
	line	99
	
i1l9192:	
;LDM.c: 99: else if(col>=64 && col<=83) right_side[col-64] = temp;
	movlw	(040h)
	subwf	(i1charUpdate@col),w
	skipc
	goto	u205_21
	goto	u205_20
u205_21:
	goto	i1l3314
u205_20:
	
i1l9194:	
	movlw	(054h)
	subwf	(i1charUpdate@col),w
	skipnc
	goto	u206_21
	goto	u206_20
u206_21:
	goto	i1l3314
u206_20:
	
i1l9196:	
	clrc
	rlf	(i1charUpdate@col),w
	addlw	_right_side+-128&0ffh
	movwf	fsr0
	movf	(i1charUpdate@temp),w
	bsf	status, 7	;select IRP bank2
	movwf	indf
	incf	fsr0,f
	movf	(i1charUpdate@temp+1),w
	movwf	indf
	line	82
	
i1l9198:	
	incf	(i1charUpdate@i),f
	incf	(i1charUpdate@col),f
	
i1l9200:	
	movf	(i1charUpdate@size),w
	subwf	(i1charUpdate@i),w
	skipc
	goto	u207_21
	goto	u207_20
u207_21:
	goto	i1l9172
u207_20:
	line	102
	
i1l9202:	
;LDM.c: 101: }
;LDM.c: 102: charac=display_str[char_cntrl.char_count+j];
	movlw	(_display_str)&0ffh
	addwf	(_char_cntrl),w
	movwf	(??i1_charUpdate+0)+0
	movf	(i1charUpdate@j),w
	addwf	0+(??i1_charUpdate+0)+0,w
	movwf	(??i1_charUpdate+1)+0
	movf	0+(??i1_charUpdate+1)+0,w
	movwf	fsr0
	bsf	status, 7	;select IRP bank2
	movf	indf,w
	movwf	(i1charUpdate@charac)
	line	77
	
i1l9204:	
	movf	(i1charUpdate@charac),w
	xorlw	0FFh
	skipz
	goto	u208_21
	goto	u208_20
u208_21:
	goto	i1l9164
u208_20:
	line	105
	
i1l3314:	
	return
	opt stack 0
GLOBAL	__end_ofi1_charUpdate
	__end_ofi1_charUpdate:
;; =============== function i1_charUpdate ends ============

	signat	i1_charUpdate,88
	global	_kbd
psect	text968,local,class=CODE,delta=2
global __ptext968
__ptext968:

;; *************** function _kbd *****************
;; Defined at:
;;		line 266 in file "C:\Users\ranjan\Desktop\matrix\ps2_kbd.c"
;; Parameters:    Size  Location     Type
;;		None
;; Auto vars:     Size  Location     Type
;;		None
;; Return value:  Size  Location     Type
;;		None               void
;; Registers used:
;;		wreg, fsr0l, fsr0h, status,2, status,0, btemp+1, pclath, cstack
;; Tracked objects:
;;		On entry : 60/0
;;		On exit  : 60/0
;;		Unchanged: FFE9F/0
;; Data sizes:     COMMON   BANK0   BANK1   BANK3   BANK2
;;      Params:         0       0       0       0       0
;;      Locals:         0       0       0       0       0
;;      Temps:          1       0       0       0       0
;;      Totals:         1       0       0       0       0
;;Total ram usage:        1 bytes
;; Hardware stack levels used:    1
;; Hardware stack levels required when called:    2
;; This function calls:
;;		_decode_key
;; This function is called by:
;;		_ISR
;; This function uses a non-reentrant model
;;
psect	text968
	file	"C:\Users\ranjan\Desktop\matrix\ps2_kbd.c"
	line	266
	global	__size_of_kbd
	__size_of_kbd	equ	__end_of_kbd-_kbd
	
_kbd:	
	opt	stack 0
; Regs used in _kbd: [wreg-fsr0h+status,2+status,0+btemp+1+pclath+cstack]
	line	268
	
i1l8822:	
;ps2_kbd.c: 268: if(RB0 == 1) return;
	btfss	(48/8),(48)&7
	goto	u150_21
	goto	u150_20
u150_21:
	goto	i1l1094
u150_20:
	goto	i1l1095
	
i1l1094:	
	line	270
;ps2_kbd.c: 270: if(!bitVars.Started)
	btfsc	(_bitVars),0
	goto	u151_21
	goto	u151_20
u151_21:
	goto	i1l8836
u151_20:
	line	272
	
i1l8826:	
;ps2_kbd.c: 271: {
;ps2_kbd.c: 272: if(RB1 == 0)
	btfsc	(49/8),(49)&7
	goto	u152_21
	goto	u152_20
u152_21:
	goto	i1l1095
u152_20:
	line	274
	
i1l8828:	
;ps2_kbd.c: 273: {
;ps2_kbd.c: 274: bitVars.Started=1;
	bsf	(_bitVars),0
	line	275
	
i1l8830:	
;ps2_kbd.c: 275: kbd_byte=0;
	clrf	(_kbd_byte)
	line	276
;ps2_kbd.c: 276: bit_count=0;
	clrf	(_bit_count)
	goto	i1l1095
	line	280
	
i1l8836:	
;ps2_kbd.c: 280: else if(bit_count<8)
	movlw	(08h)
	subwf	(_bit_count),w
	skipnc
	goto	u153_21
	goto	u153_20
u153_21:
	goto	i1l8848
u153_20:
	line	282
	
i1l8838:	
;ps2_kbd.c: 281: {
;ps2_kbd.c: 282: if(RB1==1) kbd_byte|=(1<<bit_count);
	btfss	(49/8),(49)&7
	goto	u154_21
	goto	u154_20
u154_21:
	goto	i1l8842
u154_20:
	
i1l8840:	
	movlw	(01h)
	movwf	(??_kbd+0)+0
	incf	(_bit_count),w
	goto	u155_24
u155_25:
	clrc
	rlf	(??_kbd+0)+0,f
u155_24:
	addlw	-1
	skipz
	goto	u155_25
	movf	0+(??_kbd+0)+0,w
	iorwf	(_kbd_byte),f
	line	283
	
i1l8842:	
;ps2_kbd.c: 283: bit_count++;
	incf	(_bit_count),f
	goto	i1l1095
	line	286
	
i1l8848:	
;ps2_kbd.c: 286: else if(bit_count == 8)
	movf	(_bit_count),w
	xorlw	08h
	skipz
	goto	u156_21
	goto	u156_20
u156_21:
	goto	i1l8856
u156_20:
	goto	i1l8842
	line	295
	
i1l8856:	
;ps2_kbd.c: 292: else
;ps2_kbd.c: 293: {
;ps2_kbd.c: 295: bit_count=0;
	clrf	(_bit_count)
	line	296
	
i1l8858:	
;ps2_kbd.c: 296: bitVars.Started=0;
	bcf	(_bitVars),0
	line	299
	
i1l8860:	
;ps2_kbd.c: 297: }
;ps2_kbd.c: 299: if(kbd_byte == 0xF0)
	movf	(_kbd_byte),w
	xorlw	0F0h
	skipz
	goto	u157_21
	goto	u157_20
u157_21:
	goto	i1l8870
u157_20:
	line	301
	
i1l8862:	
;ps2_kbd.c: 300: {
;ps2_kbd.c: 301: bitVars.Release=1;
	bsf	(_bitVars),1
	line	302
	
i1l8864:	
;ps2_kbd.c: 302: kbd_byte=0;
	clrf	(_kbd_byte)
	goto	i1l1095
	line	305
	
i1l8870:	
;ps2_kbd.c: 305: else if((kbd_byte == 0X12) || (kbd_byte == 0X59))
	movf	(_kbd_byte),w
	xorlw	012h
	skipnz
	goto	u158_21
	goto	u158_20
u158_21:
	goto	i1l1108
u158_20:
	
i1l8872:	
	movf	(_kbd_byte),w
	xorlw	059h
	skipz
	goto	u159_21
	goto	u159_20
u159_21:
	goto	i1l8878
u159_20:
	
i1l1108:	
	line	307
;ps2_kbd.c: 306: {
;ps2_kbd.c: 307: if(bitVars.Release == 0)
	btfsc	(_bitVars),1
	goto	u160_21
	goto	u160_20
u160_21:
	goto	i1l1109
u160_20:
	line	309
	
i1l8874:	
;ps2_kbd.c: 308: {
;ps2_kbd.c: 309: bitVars.ShiftKey=1;
	bsf	(_bitVars),3
	line	310
;ps2_kbd.c: 310: }
	goto	i1l1095
	line	311
	
i1l1109:	
	line	313
;ps2_kbd.c: 311: else
;ps2_kbd.c: 312: {
;ps2_kbd.c: 313: bitVars.ShiftKey=0;
	bcf	(_bitVars),3
	line	314
;ps2_kbd.c: 314: bitVars.Release=0;
	bcf	(_bitVars),1
	goto	i1l1095
	line	318
	
i1l8878:	
;ps2_kbd.c: 318: else if(kbd_byte == 0X58)
	movf	(_kbd_byte),w
	xorlw	058h
	skipz
	goto	u161_21
	goto	u161_20
u161_21:
	goto	i1l1112
u161_20:
	line	320
	
i1l8880:	
;ps2_kbd.c: 319: {
;ps2_kbd.c: 320: if(bitVars.Release == 1)
	btfss	(_bitVars),1
	goto	u162_21
	goto	u162_20
u162_21:
	goto	i1l8884
u162_20:
	line	321
	
i1l8882:	
;ps2_kbd.c: 321: bitVars.CapsKey=~bitVars.CapsKey;
	movlw	1<<4
	xorwf	(_bitVars),f
	line	324
	
i1l8884:	
;ps2_kbd.c: 324: bitVars.Release=0;
	bcf	(_bitVars),1
	line	325
;ps2_kbd.c: 325: }
	goto	i1l1095
	line	326
	
i1l1112:	
	line	328
;ps2_kbd.c: 326: else
;ps2_kbd.c: 327: {
;ps2_kbd.c: 328: if(bitVars.Release == 0)
	btfsc	(_bitVars),1
	goto	u163_21
	goto	u163_20
u163_21:
	goto	i1l1115
u163_20:
	line	330
	
i1l8886:	
;ps2_kbd.c: 329: {
;ps2_kbd.c: 330: if(kbd_byte == 0xE0)
	movf	(_kbd_byte),w
	xorlw	0E0h
	skipz
	goto	u164_21
	goto	u164_20
u164_21:
	goto	i1l8890
u164_20:
	line	332
	
i1l8888:	
;ps2_kbd.c: 331: {
;ps2_kbd.c: 332: bitVars.ExtenKey=1;
	bsf	(_bitVars),2
	line	333
;ps2_kbd.c: 333: return;
	goto	i1l1095
	line	337
	
i1l8890:	
;ps2_kbd.c: 334: }
;ps2_kbd.c: 337: decode_key(kbd_byte);
	movf	(_kbd_byte),w
	fcall	_decode_key
	line	340
;ps2_kbd.c: 340: }
	goto	i1l8864
	line	341
	
i1l1115:	
;ps2_kbd.c: 341: else if(bitVars.Release == 1)
	btfss	(_bitVars),1
	goto	u165_21
	goto	u165_20
u165_21:
	goto	i1l8864
u165_20:
	line	344
	
i1l8892:	
;ps2_kbd.c: 342: {
;ps2_kbd.c: 344: bitVars.Started=0;
	bcf	(_bitVars),0
	line	345
;ps2_kbd.c: 345: bitVars.Release=0;
	bcf	(_bitVars),1
	line	346
;ps2_kbd.c: 346: bitVars.ExtenKey=0;
	bcf	(_bitVars),2
	goto	i1l8864
	line	350
	
i1l1095:	
	return
	opt stack 0
GLOBAL	__end_of_kbd
	__end_of_kbd:
;; =============== function _kbd ends ============

	signat	_kbd,88
	global	i1_get_Arial_Rounded_MT_Bold15x16
psect	text969,local,class=CODE,delta=2
global __ptext969
__ptext969:

;; *************** function i1_get_Arial_Rounded_MT_Bold15x16 *****************
;; Defined at:
;;		line 1185 in file "C:\Users\ranjan\Desktop\matrix\font.c"
;; Parameters:    Size  Location     Type
;;  get_Arial_Ro    1    wreg     unsigned char 
;; Auto vars:     Size  Location     Type
;;  get_Arial_Ro    1   10[COMMON] unsigned char 
;;  get_Arial_Ro    2   11[COMMON] unsigned int 
;; Return value:  Size  Location     Type
;;                  2    wreg      PTR unsigned char 
;; Registers used:
;;		wreg, status,2, status,0, pclath, cstack
;; Tracked objects:
;;		On entry : 60/100
;;		On exit  : 60/100
;;		Unchanged: FFF9F/0
;; Data sizes:     COMMON   BANK0   BANK1   BANK3   BANK2
;;      Params:         0       0       0       0       0
;;      Locals:         3       0       0       0       0
;;      Temps:          4       0       0       0       0
;;      Totals:         7       0       0       0       0
;;Total ram usage:        7 bytes
;; Hardware stack levels used:    1
;; Hardware stack levels required when called:    1
;; This function calls:
;;		i1___wmul
;; This function is called by:
;;		i1_charUpdate
;; This function uses a non-reentrant model
;;
psect	text969
	file	"C:\Users\ranjan\Desktop\matrix\font.c"
	line	1185
	global	__size_ofi1_get_Arial_Rounded_MT_Bold15x16
	__size_ofi1_get_Arial_Rounded_MT_Bold15x16	equ	__end_ofi1_get_Arial_Rounded_MT_Bold15x16-i1_get_Arial_Rounded_MT_Bold15x16
	
i1_get_Arial_Rounded_MT_Bold15x16:	
	opt	stack 0
; Regs used in i1_get_Arial_Rounded_MT_Bold15x16: [wreg+status,2+status,0+pclath+cstack]
;i1get_Arial_Rounded_MT_Bold15x16@byte stored from wreg
	movwf	(i1get_Arial_Rounded_MT_Bold15x16@byte)
	line	1186
	
i1l9206:	
;font.c: 1186: unsigned int pos=(byte-32);
	movf	(i1get_Arial_Rounded_MT_Bold15x16@byte),w
	movwf	(i1get_Arial_Rounded_MT_Bold15x16@pos)
	clrf	(i1get_Arial_Rounded_MT_Bold15x16@pos+1)
	
i1l9208:	
	movlw	-32
	addwf	(i1get_Arial_Rounded_MT_Bold15x16@pos),f
	skipc
	decf	(i1get_Arial_Rounded_MT_Bold15x16@pos+1),f
	line	1187
	
i1l9210:	
;font.c: 1187: pos*=39;
	movlw	027h
	movwf	(?i1___wmul)
	clrf	(?i1___wmul+1)
	movf	(i1get_Arial_Rounded_MT_Bold15x16@pos+1),w
	movwf	1+(?i1___wmul)+02h
	movf	(i1get_Arial_Rounded_MT_Bold15x16@pos),w
	movwf	0+(?i1___wmul)+02h
	fcall	i1___wmul
	movf	(1+(?i1___wmul)),w
	movwf	(i1get_Arial_Rounded_MT_Bold15x16@pos+1)
	movf	(0+(?i1___wmul)),w
	movwf	(i1get_Arial_Rounded_MT_Bold15x16@pos)
	line	1188
	
i1l9212:	
;font.c: 1188: return (unsigned char*)(&Arial_Rounded_MT_Bold20x16[pos]);
	movlw	low(_Arial_Rounded_MT_Bold20x16|8000h)
	movwf	(??i1_get_Arial_Rounded_MT_Bold15x16+0)+0
	movlw	high(_Arial_Rounded_MT_Bold20x16|8000h)
	movwf	(??i1_get_Arial_Rounded_MT_Bold15x16+0)+0+1
	movf	(i1get_Arial_Rounded_MT_Bold15x16@pos),w
	addwf	0+(??i1_get_Arial_Rounded_MT_Bold15x16+0)+0,w
	movwf	(??i1_get_Arial_Rounded_MT_Bold15x16+2)+0
	movf	(i1get_Arial_Rounded_MT_Bold15x16@pos+1),w
	skipnc
	incf	(i1get_Arial_Rounded_MT_Bold15x16@pos+1),w
	addwf	1+(??i1_get_Arial_Rounded_MT_Bold15x16+0)+0,w
	movwf	1+(??i1_get_Arial_Rounded_MT_Bold15x16+2)+0
	movf	0+(??i1_get_Arial_Rounded_MT_Bold15x16+2)+0,w
	movwf	(?i1_get_Arial_Rounded_MT_Bold15x16)
	movf	1+(??i1_get_Arial_Rounded_MT_Bold15x16+2)+0,w
	movwf	(?i1_get_Arial_Rounded_MT_Bold15x16+1)
	line	1189
	
i1l3366:	
	return
	opt stack 0
GLOBAL	__end_ofi1_get_Arial_Rounded_MT_Bold15x16
	__end_ofi1_get_Arial_Rounded_MT_Bold15x16:
;; =============== function i1_get_Arial_Rounded_MT_Bold15x16 ends ============

	signat	i1_get_Arial_Rounded_MT_Bold15x16,89
	global	i1_refresh_display
psect	text970,local,class=CODE,delta=2
global __ptext970
__ptext970:

;; *************** function i1_refresh_display *****************
;; Defined at:
;;		line 32 in file "C:\Users\ranjan\Desktop\matrix\LDM.c"
;; Parameters:    Size  Location     Type
;;		None
;; Auto vars:     Size  Location     Type
;;  refresh_disp    1    7[COMMON] unsigned char 
;; Return value:  Size  Location     Type
;;		None               void
;; Registers used:
;;		wreg, fsr0l, fsr0h, status,2, status,0, pclath, cstack
;; Tracked objects:
;;		On entry : 60/0
;;		On exit  : 0/0
;;		Unchanged: 0/0
;; Data sizes:     COMMON   BANK0   BANK1   BANK3   BANK2
;;      Params:         0       0       0       0       0
;;      Locals:         1       0       0       0       0
;;      Temps:          2       0       0       0       0
;;      Totals:         3       0       0       0       0
;;Total ram usage:        3 bytes
;; Hardware stack levels used:    1
;; Hardware stack levels required when called:    1
;; This function calls:
;;		i1_putRowData
;; This function is called by:
;;		_ISR
;; This function uses a non-reentrant model
;;
psect	text970
	file	"C:\Users\ranjan\Desktop\matrix\LDM.c"
	line	32
	global	__size_ofi1_refresh_display
	__size_ofi1_refresh_display	equ	__end_ofi1_refresh_display-i1_refresh_display
	
i1_refresh_display:	
	opt	stack 1
; Regs used in i1_refresh_display: [wreg-fsr0h+status,2+status,0+pclath+cstack]
	line	33
	
i1l9108:	
;LDM.c: 33: unsigned char i=31;
	movlw	(01Fh)
	movwf	(i1refresh_display@i)
	line	35
	
i1l9110:	
;LDM.c: 35: RD2 = 0;
	bcf	(66/8),(66)&7
	line	36
	
i1l9112:	
;LDM.c: 36: RD2 = 1;
	bsf	(66/8),(66)&7
	line	37
	
i1l9114:	
;LDM.c: 37: RC1 = RC2 = 1;
	bsf	(58/8),(58)&7
	btfsc	(58/8),(58)&7
	goto	u198_21
	goto	u198_20
	
u198_21:
	bcf	status, 5	;RP0=0, select bank0
	bcf	status, 6	;RP1=0, select bank0
	bsf	(57/8),(57)&7
	goto	u199_24
u198_20:
	bcf	status, 5	;RP0=0, select bank0
	bcf	status, 6	;RP1=0, select bank0
	bcf	(57/8),(57)&7
u199_24:
	line	38
	
i1l9116:	
;LDM.c: 38: RD7 = 0;
	bcf	(71/8),(71)&7
	line	39
	
i1l9118:	
;LDM.c: 39: RD1 = 1;
	bsf	(65/8),(65)&7
	line	40
	
i1l9120:	
;LDM.c: 40: putRowData(dispRam1[i], dispRam2[i]);
	clrc
	rlf	(i1refresh_display@i),w
	addlw	_dispRam1&0ffh
	movwf	fsr0
	bsf	status, 7	;select IRP bank3
	movf	indf,w
	movwf	(?i1_putRowData)
	incf	fsr0,f
	movf	indf,w
	movwf	(?i1_putRowData+1)
	clrc
	rlf	(i1refresh_display@i),w
	addlw	_dispRam2&0ffh
	movwf	fsr0
	bcf	status, 7	;select IRP bank1
	movf	indf,w
	movwf	0+(?i1_putRowData)+02h
	incf	fsr0,f
	movf	indf,w
	movwf	1+(?i1_putRowData)+02h
	fcall	i1_putRowData
	line	41
	
i1l9122:	
;LDM.c: 41: RD6 = 0;
	bcf	(70/8),(70)&7
	line	42
	
i1l9124:	
;LDM.c: 42: RD6 = 1;
	bsf	(70/8),(70)&7
	line	43
	
i1l9126:	
;LDM.c: 43: i--;
	decf	(i1refresh_display@i),f
	line	46
	
i1l9128:	
;LDM.c: 45: {
;LDM.c: 46: RD3 =0;
	bcf	(67/8),(67)&7
	line	47
	
i1l9130:	
;LDM.c: 47: RD3 =1;
	bsf	(67/8),(67)&7
	line	48
	
i1l9132:	
;LDM.c: 48: RD0 = 0;
	bcf	(64/8),(64)&7
	line	49
	
i1l9134:	
;LDM.c: 49: RD0 = 1;
	bsf	(64/8),(64)&7
	line	51
	
i1l9136:	
;LDM.c: 51: RD1 = 0;
	bcf	(65/8),(65)&7
	line	52
	
i1l9138:	
;LDM.c: 52: if(i==0xFF) break;
	movf	(i1refresh_display@i),w
	xorlw	0FFh
	skipz
	goto	u200_21
	goto	u200_20
u200_21:
	goto	i1l9142
u200_20:
	goto	i1l9156
	line	53
	
i1l9142:	
;LDM.c: 53: _delay((unsigned long)((600)*(20000000/4000000.0)));
	opt asmopt_off
movlw	4
movwf	((??i1_refresh_display+0)+0+1),f
	movlw	228
movwf	((??i1_refresh_display+0)+0),f
u289_27:
	decfsz	((??i1_refresh_display+0)+0),f
	goto	u289_27
	decfsz	((??i1_refresh_display+0)+0+1),f
	goto	u289_27
	clrwdt
opt asmopt_on

	line	54
	
i1l9144:	
;LDM.c: 54: putRowData(dispRam1[i], dispRam2[i]);
	clrc
	rlf	(i1refresh_display@i),w
	addlw	_dispRam1&0ffh
	movwf	fsr0
	bsf	status, 7	;select IRP bank3
	movf	indf,w
	movwf	(?i1_putRowData)
	incf	fsr0,f
	movf	indf,w
	movwf	(?i1_putRowData+1)
	clrc
	rlf	(i1refresh_display@i),w
	addlw	_dispRam2&0ffh
	movwf	fsr0
	bcf	status, 7	;select IRP bank1
	movf	indf,w
	movwf	0+(?i1_putRowData)+02h
	incf	fsr0,f
	movf	indf,w
	movwf	1+(?i1_putRowData)+02h
	fcall	i1_putRowData
	line	55
	
i1l9146:	
;LDM.c: 55: i--;
	decf	(i1refresh_display@i),f
	line	56
	
i1l9148:	
;LDM.c: 56: RC1 = RC2 = 0;
	bcf	(58/8),(58)&7
	bcf	(57/8),(57)&7
	line	57
	
i1l9150:	
;LDM.c: 57: RD1 = 1;
	bsf	(65/8),(65)&7
	line	58
	
i1l9152:	
;LDM.c: 58: RD6 = 0;
	bcf	(70/8),(70)&7
	line	59
	
i1l9154:	
;LDM.c: 59: RD6 = 1;
	bsf	(70/8),(70)&7
	line	60
;LDM.c: 60: }
	goto	i1l9128
	line	61
	
i1l9156:	
;LDM.c: 61: _delay((unsigned long)((600)*(20000000/4000000.0)));
	opt asmopt_off
movlw	4
movwf	((??i1_refresh_display+0)+0+1),f
	movlw	228
movwf	((??i1_refresh_display+0)+0),f
u290_27:
	decfsz	((??i1_refresh_display+0)+0),f
	goto	u290_27
	decfsz	((??i1_refresh_display+0)+0+1),f
	goto	u290_27
	clrwdt
opt asmopt_on

	line	62
	
i1l3299:	
	return
	opt stack 0
GLOBAL	__end_ofi1_refresh_display
	__end_ofi1_refresh_display:
;; =============== function i1_refresh_display ends ============

	signat	i1_refresh_display,88
	global	_decode_key
psect	text971,local,class=CODE,delta=2
global __ptext971
__ptext971:

;; *************** function _decode_key *****************
;; Defined at:
;;		line 196 in file "C:\Users\ranjan\Desktop\matrix\ps2_kbd.c"
;; Parameters:    Size  Location     Type
;;  data            1    wreg     unsigned char 
;; Auto vars:     Size  Location     Type
;;  data            1    1[COMMON] unsigned char 
;;  i               1    2[COMMON] unsigned char 
;; Return value:  Size  Location     Type
;;		None               void
;; Registers used:
;;		wreg, fsr0l, fsr0h, status,2, status,0, btemp+1, pclath, cstack
;; Tracked objects:
;;		On entry : 60/0
;;		On exit  : 60/0
;;		Unchanged: FFE9F/0
;; Data sizes:     COMMON   BANK0   BANK1   BANK3   BANK2
;;      Params:         0       0       0       0       0
;;      Locals:         2       0       0       0       0
;;      Temps:          0       0       0       0       0
;;      Totals:         2       0       0       0       0
;;Total ram usage:        2 bytes
;; Hardware stack levels used:    1
;; Hardware stack levels required when called:    1
;; This function calls:
;;		_fill_kbd_buff
;; This function is called by:
;;		_kbd
;; This function uses a non-reentrant model
;;
psect	text971
	file	"C:\Users\ranjan\Desktop\matrix\ps2_kbd.c"
	line	196
	global	__size_of_decode_key
	__size_of_decode_key	equ	__end_of_decode_key-_decode_key
	
_decode_key:	
;; using string table level
	opt	stack 1
; Regs used in _decode_key: [wreg-fsr0h+status,2+status,0+btemp+1+pclath+cstack]
;decode_key@data stored from wreg
	movwf	(decode_key@data)
	line	197
	
i1l8738:	
	line	199
	
i1l8740:	
;ps2_kbd.c: 199: if(bitVars.ExtenKey == 0)
	btfsc	(_bitVars),2
	goto	u135_21
	goto	u135_20
u135_21:
	goto	i1l8776
u135_20:
	line	201
	
i1l8742:	
;ps2_kbd.c: 200: {
;ps2_kbd.c: 201: for(i=0; i<(sizeof(key)/2); i++)
	clrf	(decode_key@i)
	line	203
	
i1l8748:	
;ps2_kbd.c: 202: {
;ps2_kbd.c: 203: if(key[i][1] == data)
	setc
	rlf	(decode_key@i),w
	addlw	low(_key|8000h)
	movwf	fsr0
	movlw	high(_key|8000h)
	skipnc
	addlw	1
	movwf	btemp+1
	fcall	stringtab
	xorwf	(decode_key@data),w
	skipz
	goto	u136_21
	goto	u136_20
u136_21:
	goto	i1l8766
u136_20:
	line	205
	
i1l8750:	
;ps2_kbd.c: 204: {
;ps2_kbd.c: 205: if((i>=27 && i<=48) && bitVars.ShiftKey == 1)
	movlw	(01Bh)
	subwf	(decode_key@i),w
	skipc
	goto	u137_21
	goto	u137_20
u137_21:
	goto	i1l8762
u137_20:
	
i1l8752:	
	movlw	(031h)
	subwf	(decode_key@i),w
	skipnc
	goto	u138_21
	goto	u138_20
u138_21:
	goto	i1l8762
u138_20:
	
i1l8754:	
	btfss	(_bitVars),3
	goto	u139_21
	goto	u139_20
u139_21:
	goto	i1l8762
u139_20:
	line	207
	
i1l8756:	
;ps2_kbd.c: 206: {
;ps2_kbd.c: 207: bitVars.ShiftChar=1;
	bsf	(_bitVars),6
	line	208
	
i1l8758:	
;ps2_kbd.c: 208: fill_kbd_buff(Shift_key[i-27][0]);
	clrc
	rlf	(decode_key@i),w
	addlw	low(_Shift_key|8000h+0FFCAh)
	movwf	fsr0
	movlw	high(_Shift_key|8000h+0FFCAh)
	skipnc
	addlw	1
	movwf	btemp+1
	fcall	stringtab
	fcall	_fill_kbd_buff
	line	209
	
i1l8760:	
;ps2_kbd.c: 209: bitVars.ShiftChar=0;
	bcf	(_bitVars),6
	line	210
;ps2_kbd.c: 210: }
	goto	i1l1071
	line	213
	
i1l8762:	
;ps2_kbd.c: 211: else
;ps2_kbd.c: 212: {
;ps2_kbd.c: 213: fill_kbd_buff(key[i][0]);
	clrc
	rlf	(decode_key@i),w
	addlw	low(_key|8000h)
	movwf	fsr0
	movlw	high(_key|8000h)
	skipnc
	addlw	1
	movwf	btemp+1
	fcall	stringtab
	fcall	_fill_kbd_buff
	goto	i1l1071
	line	219
	
i1l8766:	
;ps2_kbd.c: 217: }
;ps2_kbd.c: 219: if(key[i][1] == data)
	setc
	rlf	(decode_key@i),w
	addlw	low(_key|8000h)
	movwf	fsr0
	movlw	high(_key|8000h)
	skipnc
	addlw	1
	movwf	btemp+1
	fcall	stringtab
	xorwf	(decode_key@data),w
	skipz
	goto	u140_21
	goto	u140_20
u140_21:
	goto	i1l8772
u140_20:
	line	221
	
i1l8768:	
;ps2_kbd.c: 220: {
;ps2_kbd.c: 221: fill_kbd_buff(key[i][0]);
	clrc
	rlf	(decode_key@i),w
	addlw	low(_key|8000h)
	movwf	fsr0
	movlw	high(_key|8000h)
	skipnc
	addlw	1
	movwf	btemp+1
	fcall	stringtab
	fcall	_fill_kbd_buff
	goto	i1l1071
	line	201
	
i1l8772:	
	incf	(decode_key@i),f
	
i1l8774:	
	movlw	(052h)
	subwf	(decode_key@i),w
	skipc
	goto	u141_21
	goto	u141_20
u141_21:
	goto	i1l8748
u141_20:
	goto	i1l1071
	line	228
	
i1l8776:	
;ps2_kbd.c: 226: else
;ps2_kbd.c: 227: {
;ps2_kbd.c: 228: for(i=0; i<(sizeof(Ext_key)/2); i++)
	clrf	(decode_key@i)
	line	230
	
i1l8782:	
;ps2_kbd.c: 229: {
;ps2_kbd.c: 230: if(Ext_key[i][1] == data)
	setc
	rlf	(decode_key@i),w
	addlw	low(_Ext_key|8000h)
	movwf	fsr0
	movlw	high(_Ext_key|8000h)
	skipnc
	addlw	1
	movwf	btemp+1
	fcall	stringtab
	xorwf	(decode_key@data),w
	skipz
	goto	u142_21
	goto	u142_20
u142_21:
	goto	i1l8788
u142_20:
	line	232
	
i1l8784:	
;ps2_kbd.c: 231: {
;ps2_kbd.c: 232: fill_kbd_buff(Ext_key[i][0]);
	clrc
	rlf	(decode_key@i),w
	addlw	low(_Ext_key|8000h)
	movwf	fsr0
	movlw	high(_Ext_key|8000h)
	skipnc
	addlw	1
	movwf	btemp+1
	fcall	stringtab
	fcall	_fill_kbd_buff
	goto	i1l1071
	line	228
	
i1l8788:	
	incf	(decode_key@i),f
	
i1l8790:	
	movlw	(027h)
	subwf	(decode_key@i),w
	skipc
	goto	u143_21
	goto	u143_20
u143_21:
	goto	i1l8782
u143_20:
	line	238
	
i1l1071:	
	return
	opt stack 0
GLOBAL	__end_of_decode_key
	__end_of_decode_key:
;; =============== function _decode_key ends ============

	signat	_decode_key,4216
	global	i1___wmul
psect	text972,local,class=CODE,delta=2
global __ptext972
__ptext972:

;; *************** function i1___wmul *****************
;; Defined at:
;;		line 3 in file "C:\Program Files\HI-TECH Software\PICC\9.83\sources\wmul.c"
;; Parameters:    Size  Location     Type
;;  __wmul          2    0[COMMON] unsigned int 
;;  __wmul          2    2[COMMON] unsigned int 
;; Auto vars:     Size  Location     Type
;;  __wmul          2    4[COMMON] unsigned int 
;; Return value:  Size  Location     Type
;;                  2    0[COMMON] unsigned int 
;; Registers used:
;;		wreg, status,2, status,0
;; Tracked objects:
;;		On entry : 60/100
;;		On exit  : 60/100
;;		Unchanged: FFF9F/0
;; Data sizes:     COMMON   BANK0   BANK1   BANK3   BANK2
;;      Params:         4       0       0       0       0
;;      Locals:         2       0       0       0       0
;;      Temps:          0       0       0       0       0
;;      Totals:         6       0       0       0       0
;;Total ram usage:        6 bytes
;; Hardware stack levels used:    1
;; This function calls:
;;		Nothing
;; This function is called by:
;;		i1_get_Arial_Rounded_MT_Bold15x16
;; This function uses a non-reentrant model
;;
psect	text972
	file	"C:\Program Files\HI-TECH Software\PICC\9.83\sources\wmul.c"
	line	3
	global	__size_ofi1___wmul
	__size_ofi1___wmul	equ	__end_ofi1___wmul-i1___wmul
	
i1___wmul:	
	opt	stack 0
; Regs used in i1___wmul: [wreg+status,2+status,0]
	line	4
	
i1l9216:	
	clrf	(i1___wmul@product)
	clrf	(i1___wmul@product+1)
	line	7
	
i1l9218:	
	btfss	(i1___wmul@multiplier),(0)&7
	goto	u209_21
	goto	u209_20
u209_21:
	goto	i1l9222
u209_20:
	line	8
	
i1l9220:	
	movf	(i1___wmul@multiplicand),w
	addwf	(i1___wmul@product),f
	skipnc
	incf	(i1___wmul@product+1),f
	movf	(i1___wmul@multiplicand+1),w
	addwf	(i1___wmul@product+1),f
	line	9
	
i1l9222:	
	clrc
	rlf	(i1___wmul@multiplicand),f
	rlf	(i1___wmul@multiplicand+1),f
	line	10
	
i1l9224:	
	clrc
	rrf	(i1___wmul@multiplier+1),f
	rrf	(i1___wmul@multiplier),f
	line	11
	
i1l9226:	
	movf	((i1___wmul@multiplier+1)),w
	iorwf	((i1___wmul@multiplier)),w
	skipz
	goto	u210_21
	goto	u210_20
u210_21:
	goto	i1l9218
u210_20:
	line	12
	
i1l9228:	
	movf	(i1___wmul@product+1),w
	movwf	(?i1___wmul+1)
	movf	(i1___wmul@product),w
	movwf	(?i1___wmul)
	line	13
	
i1l7247:	
	return
	opt stack 0
GLOBAL	__end_ofi1___wmul
	__end_ofi1___wmul:
;; =============== function i1___wmul ends ============

	signat	i1___wmul,90
	global	i1_putRowData
psect	text973,local,class=CODE,delta=2
global __ptext973
__ptext973:

;; *************** function i1_putRowData *****************
;; Defined at:
;;		line 15 in file "C:\Users\ranjan\Desktop\matrix\LDM.c"
;; Parameters:    Size  Location     Type
;;  putRowData      2    0[COMMON] unsigned int 
;;  putRowData      2    2[COMMON] unsigned int 
;; Auto vars:     Size  Location     Type
;;  putRowData      1    4[COMMON] unsigned char 
;; Return value:  Size  Location     Type
;;		None               void
;; Registers used:
;;		wreg, status,2, status,0
;; Tracked objects:
;;		On entry : 100/0
;;		On exit  : 60/0
;;		Unchanged: FFE00/0
;; Data sizes:     COMMON   BANK0   BANK1   BANK3   BANK2
;;      Params:         4       0       0       0       0
;;      Locals:         1       0       0       0       0
;;      Temps:          0       0       0       0       0
;;      Totals:         5       0       0       0       0
;;Total ram usage:        5 bytes
;; Hardware stack levels used:    1
;; This function calls:
;;		Nothing
;; This function is called by:
;;		i1_refresh_display
;; This function uses a non-reentrant model
;;
psect	text973
	file	"C:\Users\ranjan\Desktop\matrix\LDM.c"
	line	15
	global	__size_ofi1_putRowData
	__size_ofi1_putRowData	equ	__end_ofi1_putRowData-i1_putRowData
	
i1_putRowData:	
	opt	stack 1
; Regs used in i1_putRowData: [wreg+status,2+status,0]
	line	16
	
i1l9088:	
	line	18
	
i1l9090:	
;LDM.c: 18: RD4 = 0;
	bcf	status, 5	;RP0=0, select bank0
	bcf	status, 6	;RP1=0, select bank0
	bcf	(68/8),(68)&7
	line	19
	
i1l9092:	
;LDM.c: 19: RD4 = 1;
	bsf	(68/8),(68)&7
	line	20
;LDM.c: 20: for(i=0; i<=15; i++)
	clrf	(i1putRowData@i)
	line	21
	
i1l3291:	
	line	22
;LDM.c: 21: {
;LDM.c: 22: RC3=(data1&0x0001) ? 1:0; data1>>=1;
	btfsc	(i1putRowData@data1),(0)&7
	goto	u193_21
	goto	u193_20
	
u193_21:
	bcf	status, 5	;RP0=0, select bank0
	bcf	status, 6	;RP1=0, select bank0
	bsf	(59/8),(59)&7
	goto	u194_24
u193_20:
	bcf	status, 5	;RP0=0, select bank0
	bcf	status, 6	;RP1=0, select bank0
	bcf	(59/8),(59)&7
u194_24:
	
i1l9098:	
	clrc
	rrf	(i1putRowData@data1+1),f
	rrf	(i1putRowData@data1),f
	line	23
	
i1l9100:	
;LDM.c: 23: RC0=(data2&0x0001) ? 1:0; data2>>=1;
	btfsc	(i1putRowData@data2),(0)&7
	goto	u195_21
	goto	u195_20
	
u195_21:
	bcf	status, 5	;RP0=0, select bank0
	bcf	status, 6	;RP1=0, select bank0
	bsf	(56/8),(56)&7
	goto	u196_24
u195_20:
	bcf	status, 5	;RP0=0, select bank0
	bcf	status, 6	;RP1=0, select bank0
	bcf	(56/8),(56)&7
u196_24:
	clrc
	rrf	(i1putRowData@data2+1),f
	rrf	(i1putRowData@data2),f
	line	24
	
i1l9102:	
;LDM.c: 24: RD5 = 0;
	bcf	(69/8),(69)&7
	line	25
	
i1l9104:	
;LDM.c: 25: RD5 = 1;
	bsf	(69/8),(69)&7
	line	20
	incf	(i1putRowData@i),f
	
i1l9106:	
	movlw	(010h)
	subwf	(i1putRowData@i),w
	skipc
	goto	u197_21
	goto	u197_20
u197_21:
	goto	i1l3291
u197_20:
	line	29
	
i1l3293:	
	return
	opt stack 0
GLOBAL	__end_ofi1_putRowData
	__end_ofi1_putRowData:
;; =============== function i1_putRowData ends ============

	signat	i1_putRowData,88
	global	_screenShift
psect	text974,local,class=CODE,delta=2
global __ptext974
__ptext974:

;; *************** function _screenShift *****************
;; Defined at:
;;		line 108 in file "C:\Users\ranjan\Desktop\matrix\LDM.c"
;; Parameters:    Size  Location     Type
;;		None
;; Auto vars:     Size  Location     Type
;;  temp            2    2[COMMON] unsigned int 
;;  i               1    4[COMMON] unsigned char 
;; Return value:  Size  Location     Type
;;		None               void
;; Registers used:
;;		wreg, fsr0l, fsr0h, status,2, status,0
;; Tracked objects:
;;		On entry : 60/0
;;		On exit  : 160/140
;;		Unchanged: FFE9F/0
;; Data sizes:     COMMON   BANK0   BANK1   BANK3   BANK2
;;      Params:         0       0       0       0       0
;;      Locals:         3       0       0       0       0
;;      Temps:          2       0       0       0       0
;;      Totals:         5       0       0       0       0
;;Total ram usage:        5 bytes
;; Hardware stack levels used:    1
;; This function calls:
;;		Nothing
;; This function is called by:
;;		_ISR
;; This function uses a non-reentrant model
;;
psect	text974
	file	"C:\Users\ranjan\Desktop\matrix\LDM.c"
	line	108
	global	__size_of_screenShift
	__size_of_screenShift	equ	__end_of_screenShift-_screenShift
	
_screenShift:	
	opt	stack 2
; Regs used in _screenShift: [wreg-fsr0h+status,2+status,0]
	line	110
	
i1l8992:	
;LDM.c: 109: unsigned char i;
;LDM.c: 110: unsigned int temp=dispRam2[0];
	bsf	status, 5	;RP0=1, select bank1
	movf	(_dispRam2+1)^080h,w
	movwf	(screenShift@temp+1)
	movf	(_dispRam2)^080h,w
	movwf	(screenShift@temp)
	line	111
	
i1l8994:	
;LDM.c: 111: for(i=0; i<31; i++)
	clrf	(screenShift@i)
	line	113
	
i1l9000:	
;LDM.c: 112: {
;LDM.c: 113: dispRam1[i] = dispRam1[i+1];
	clrc
	rlf	(screenShift@i),w
	addlw	_dispRam1+02h&0ffh
	movwf	fsr0
	bsf	status, 7	;select IRP bank3
	movf	indf,w
	movwf	(??_screenShift+0)+0+0
	incf	fsr0,f
	movf	indf,w
	movwf	(??_screenShift+0)+0+1
	clrc
	rlf	(screenShift@i),w
	addlw	_dispRam1&0ffh
	movwf	fsr0
	movf	0+(??_screenShift+0)+0,w
	movwf	indf
	incf	fsr0,f
	movf	1+(??_screenShift+0)+0,w
	movwf	indf
	line	114
;LDM.c: 114: dispRam2[i] = dispRam2[i+1];
	clrc
	rlf	(screenShift@i),w
	addlw	_dispRam2+02h&0ffh
	movwf	fsr0
	bcf	status, 7	;select IRP bank1
	movf	indf,w
	movwf	(??_screenShift+0)+0+0
	incf	fsr0,f
	movf	indf,w
	movwf	(??_screenShift+0)+0+1
	clrc
	rlf	(screenShift@i),w
	addlw	_dispRam2&0ffh
	movwf	fsr0
	movf	0+(??_screenShift+0)+0,w
	movwf	indf
	incf	fsr0,f
	movf	1+(??_screenShift+0)+0,w
	movwf	indf
	line	111
	
i1l9002:	
	incf	(screenShift@i),f
	
i1l9004:	
	movlw	(01Fh)
	subwf	(screenShift@i),w
	skipc
	goto	u180_21
	goto	u180_20
u180_21:
	goto	i1l9000
u180_20:
	line	116
	
i1l9006:	
;LDM.c: 115: }
;LDM.c: 116: dispRam1[31] = temp;
	movf	(screenShift@temp+1),w
	bsf	status, 5	;RP0=1, select bank3
	bsf	status, 6	;RP1=1, select bank3
	movwf	1+(_dispRam1)^0180h+03Eh
	movf	(screenShift@temp),w
	movwf	0+(_dispRam1)^0180h+03Eh
	line	117
;LDM.c: 117: dispRam2[31] = right_side[0];
	bcf	status, 5	;RP0=0, select bank2
	movf	(_right_side+1)^0100h,w
	bsf	status, 5	;RP0=1, select bank1
	bcf	status, 6	;RP1=0, select bank1
	movwf	1+(_dispRam2)^080h+03Eh
	bcf	status, 5	;RP0=0, select bank2
	bsf	status, 6	;RP1=1, select bank2
	movf	(_right_side)^0100h,w
	bsf	status, 5	;RP0=1, select bank1
	bcf	status, 6	;RP1=0, select bank1
	movwf	0+(_dispRam2)^080h+03Eh
	line	118
	
i1l9008:	
;LDM.c: 118: for(i=0; i<19; i++)
	clrf	(screenShift@i)
	line	120
	
i1l9014:	
;LDM.c: 119: {
;LDM.c: 120: right_side[i] = right_side[i+1];
	clrc
	rlf	(screenShift@i),w
	addlw	_right_side+02h&0ffh
	movwf	fsr0
	bsf	status, 7	;select IRP bank2
	movf	indf,w
	movwf	(??_screenShift+0)+0+0
	incf	fsr0,f
	movf	indf,w
	movwf	(??_screenShift+0)+0+1
	clrc
	rlf	(screenShift@i),w
	addlw	_right_side&0ffh
	movwf	fsr0
	movf	0+(??_screenShift+0)+0,w
	movwf	indf
	incf	fsr0,f
	movf	1+(??_screenShift+0)+0,w
	movwf	indf
	line	118
	
i1l9016:	
	incf	(screenShift@i),f
	
i1l9018:	
	movlw	(013h)
	subwf	(screenShift@i),w
	skipc
	goto	u181_21
	goto	u181_20
u181_21:
	goto	i1l9014
u181_20:
	line	122
	
i1l9020:	
;LDM.c: 121: }
;LDM.c: 122: right_side[19]=0;
	bcf	status, 5	;RP0=0, select bank2
	bsf	status, 6	;RP1=1, select bank2
	clrf	0+(_right_side)^0100h+026h
	clrf	1+(_right_side)^0100h+026h
	line	123
	
i1l3323:	
	return
	opt stack 0
GLOBAL	__end_of_screenShift
	__end_of_screenShift:
;; =============== function _screenShift ends ============

	signat	_screenShift,88
	global	_fill_kbd_buff
psect	text975,local,class=CODE,delta=2
global __ptext975
__ptext975:

;; *************** function _fill_kbd_buff *****************
;; Defined at:
;;		line 240 in file "C:\Users\ranjan\Desktop\matrix\ps2_kbd.c"
;; Parameters:    Size  Location     Type
;;  data            1    wreg     unsigned char 
;; Auto vars:     Size  Location     Type
;;  data            1    0[COMMON] unsigned char 
;; Return value:  Size  Location     Type
;;		None               void
;; Registers used:
;;		wreg, fsr0l, fsr0h, status,2, status,0
;; Tracked objects:
;;		On entry : 60/0
;;		On exit  : 160/0
;;		Unchanged: FFE9F/0
;; Data sizes:     COMMON   BANK0   BANK1   BANK3   BANK2
;;      Params:         0       0       0       0       0
;;      Locals:         1       0       0       0       0
;;      Temps:          0       0       0       0       0
;;      Totals:         1       0       0       0       0
;;Total ram usage:        1 bytes
;; Hardware stack levels used:    1
;; This function calls:
;;		Nothing
;; This function is called by:
;;		_decode_key
;; This function uses a non-reentrant model
;;
psect	text975
	file	"C:\Users\ranjan\Desktop\matrix\ps2_kbd.c"
	line	240
	global	__size_of_fill_kbd_buff
	__size_of_fill_kbd_buff	equ	__end_of_fill_kbd_buff-_fill_kbd_buff
	
_fill_kbd_buff:	
	opt	stack 0
; Regs used in _fill_kbd_buff: [wreg-fsr0h+status,2+status,0]
;fill_kbd_buff@data stored from wreg
	movwf	(fill_kbd_buff@data)
	line	241
	
i1l8792:	
;ps2_kbd.c: 241: if((data>='a' && data<='z') && ((bitVars.ShiftKey==1) || (bitVars.CapsKey==1)) )
	movlw	(061h)
	subwf	(fill_kbd_buff@data),w
	skipc
	goto	u144_21
	goto	u144_20
u144_21:
	goto	i1l8802
u144_20:
	
i1l8794:	
	movlw	(07Bh)
	subwf	(fill_kbd_buff@data),w
	skipnc
	goto	u145_21
	goto	u145_20
u145_21:
	goto	i1l8802
u145_20:
	
i1l8796:	
	btfsc	(_bitVars),3
	goto	u146_21
	goto	u146_20
u146_21:
	goto	i1l8800
u146_20:
	
i1l8798:	
	btfss	(_bitVars),4
	goto	u147_21
	goto	u147_20
u147_21:
	goto	i1l8802
u147_20:
	line	242
	
i1l8800:	
;ps2_kbd.c: 242: data-=0x20;
	movlw	low(020h)
	subwf	(fill_kbd_buff@data),f
	line	243
	
i1l8802:	
;ps2_kbd.c: 243: kbd_queue[inptr++]=data;
	movf	(_inptr),w
	addlw	_kbd_queue&0ffh
	movwf	fsr0
	movf	(fill_kbd_buff@data),w
	bcf	status, 7	;select IRP bank0
	movwf	indf
	
i1l8804:	
	incf	(_inptr),f
	line	244
	
i1l8806:	
;ps2_kbd.c: 244: if(inptr==5) inptr=0;
	movf	(_inptr),w
	xorlw	05h
	skipz
	goto	u148_21
	goto	u148_20
u148_21:
	goto	i1l1083
u148_20:
	
i1l8808:	
	clrf	(_inptr)
	line	245
	
i1l1083:	
	return
	opt stack 0
GLOBAL	__end_of_fill_kbd_buff
	__end_of_fill_kbd_buff:
;; =============== function _fill_kbd_buff ends ============

	signat	_fill_kbd_buff,4216
psect	text976,local,class=CODE,delta=2
global __ptext976
__ptext976:
	global	btemp
	btemp set 07Eh

	DABS	1,126,2	;btemp
	global	wtemp0
	wtemp0 set btemp
	end
